(dp0
S'11958'
p1
(dp2
S'com_lnSa'
p3
F1.5771600000000001
sS'mod_lnSa'
p4
F0.327192
sS'ext_lnSa'
p5
F0.490788
sS'new_id'
p6
I1958
sS'beta'
p7
F0.3
ssS'12701'
p8
(dp9
g3
F0.790059
sg4
F0.22908
sg5
F0.343619
sg6
I2701
sg7
F0.3
ssS'12700'
p10
(dp11
g3
F0.8045990000000001
sg4
F0.23204
sg5
F0.34806
sg6
I2700
sg7
F0.3
ssS'12703'
p12
(dp13
g3
F0.804462
sg4
F0.216635
sg5
F0.32495199999999996
sg6
I2703
sg7
F0.3
ssS'12702'
p14
(dp15
g3
F0.7907649999999999
sg4
F0.229284
sg5
F0.343927
sg6
I2702
sg7
F0.3
ssS'12705'
p16
(dp17
g3
F1.1531829999999998
sg4
F0.32496200000000003
sg5
F0.487443
sg6
I2705
sg7
F0.3
ssS'12704'
p18
(dp19
g3
F1.123864
sg4
F0.319759
sg5
F0.479638
sg6
I2704
sg7
F0.3
ssS'12707'
p20
(dp21
g3
F0.8135509999999999
sg4
F0.21885000000000002
sg5
F0.32827599999999996
sg6
I2707
sg7
F0.3
ssS'12706'
p22
(dp23
g3
F1.178424
sg4
F0.325881
sg5
F0.488822
sg6
I2706
sg7
F0.3
ssS'12709'
p24
(dp25
g3
F0.797978
sg4
F0.231376
sg5
F0.34706400000000004
sg6
I2709
sg7
F0.3
ssS'12708'
p26
(dp27
g3
F0.795918
sg4
F0.230778
sg5
F0.346168
sg6
I2708
sg7
F0.3
ssS'12019'
p28
(dp29
g3
F2.20821
sg4
F0.489887
sg5
F0.7348300000000001
sg6
I2019
sg7
F0.3
ssS'12018'
p30
(dp31
g3
F2.334554
sg4
F0.54383
sg5
F0.815745
sg6
I2018
sg7
F0.3
ssS'12015'
p32
(dp33
g3
F2.274824
sg4
F0.511816
sg5
F0.7677240000000001
sg6
I2015
sg7
F0.3
ssS'12014'
p34
(dp35
g3
F2.258458
sg4
F0.514364
sg5
F0.7715460000000001
sg6
I2014
sg7
F0.3
ssS'12017'
p36
(dp37
g3
F2.304342
sg4
F0.5075780000000001
sg5
F0.761367
sg6
I2017
sg7
F0.3
ssS'12016'
p38
(dp39
g3
F2.2845079999999998
sg4
F0.509828
sg5
F0.7647419999999999
sg6
I2016
sg7
F0.3
ssS'12011'
p40
(dp41
g3
F2.254041
sg4
F0.513637
sg5
F0.770455
sg6
I2011
sg7
F0.3
ssS'12010'
p42
(dp43
g3
F2.331741
sg4
F0.495372
sg5
F0.743058
sg6
I2010
sg7
F0.3
ssS'12013'
p44
(dp45
g3
F2.277641
sg4
F0.511297
sg5
F0.7669459999999999
sg6
I2013
sg7
F0.3
ssS'12012'
p46
(dp47
g3
F2.1942369999999998
sg4
F0.509466
sg5
F0.764199
sg6
I2012
sg7
F0.3
ssS'11768'
p48
(dp49
g3
F2.750762
sg4
F0.68769
sg5
F2.0627969999999998
sg6
I1768
sg7
F0.3
ssS'11769'
p50
(dp51
g3
F2.7775580000000004
sg4
F0.69439
sg5
F2.083169
sg6
I1769
sg7
F0.2
ssS'11762'
p52
(dp53
g3
F2.6935520000000004
sg4
F0.6733880000000001
sg5
F2.000734
sg6
I1762
sg7
F0.3
ssS'11763'
p54
(dp55
g3
F2.985525
sg4
F0.746381
sg5
F2.20973
sg6
I1763
sg7
F0.3
ssS'11760'
p56
(dp57
g3
F2.976755
sg4
F0.744189
sg5
F2.191191
sg6
I1760
sg7
F0.3
ssS'11761'
p58
(dp59
g3
F2.6577960000000003
sg4
F0.6644490000000001
sg5
F1.993347
sg6
I1761
sg7
F0.3
ssS'11766'
p60
(dp61
g3
F2.752414
sg4
F0.688104
sg5
F2.064311
sg6
I1766
sg7
F0.2
ssS'11767'
p62
(dp63
g3
F2.799808
sg4
F0.699952
sg5
F2.099856
sg6
I1767
sg7
F0.2
ssS'11764'
p64
(dp65
g3
F3.018297
sg4
F0.7545740000000001
sg5
F2.224971
sg6
I1764
sg7
F0.3
ssS'11765'
p66
(dp67
g3
F3.038665
sg4
F0.759666
sg5
F2.2211410000000003
sg6
I1765
sg7
F0.3
ssS'12129'
p68
(dp69
g3
F1.110786
sg4
F0.302259
sg5
F0.841277
sg6
I2129
sg7
F0.2
ssS'12128'
p70
(dp71
g3
F2.8344150000000004
sg4
F0.708604
sg5
F2.125811
sg6
I2128
sg7
F0.2
ssS'12121'
p72
(dp73
g3
F2.235
sg4
F0.465
sg5
F0.7125
sg6
I2121
sg7
F0.4
ssS'12120'
p74
(dp75
g3
F2.85
sg4
F0.465
sg5
F0.7125
sg6
I2120
sg7
F0.4
ssS'12123'
p76
(dp77
g3
F8.275382
sg4
F2.068846
sg5
F6.206537
sg6
I2123
sg7
F0.2
ssS'12122'
p78
(dp79
g3
F8.395533
sg4
F2.098883
sg5
F6.29665
sg6
I2122
sg7
F0.2
ssS'12125'
p80
(dp81
g3
F8.219872
sg4
F2.054968
sg5
F6.164904
sg6
I2125
sg7
F0.2
ssS'12124'
p82
(dp83
g3
F8.219872
sg4
F2.054968
sg5
F6.164904
sg6
I2124
sg7
F0.2
ssS'12127'
p84
(dp85
g3
F2.701199
sg4
F0.6753
sg5
F2.025899
sg6
I2127
sg7
F0.2
ssS'12126'
p86
(dp87
g3
F3.850079
sg4
F0.9625199999999999
sg5
F2.887559
sg6
I2126
sg7
F0.2
ssS'11948'
p88
(dp89
g3
F1.708007
sg4
F0.32156
sg5
F0.48234
sg6
I1948
sg7
F0.3
ssS'11949'
p90
(dp91
g3
F1.650841
sg4
F0.31424399999999997
sg5
F0.471366
sg6
I1949
sg7
F0.3
ssS'11946'
p92
(dp93
g3
F1.7379939999999998
sg4
F0.32868
sg5
F0.49302
sg6
I1946
sg7
F0.3
ssS'11947'
p94
(dp95
g3
F1.715887
sg4
F0.32813200000000003
sg5
F0.49219799999999997
sg6
I1947
sg7
F0.3
ssS'11944'
p96
(dp97
g3
F1.53157
sg4
F0.286362
sg5
F0.429544
sg6
I1944
sg7
F0.3
ssS'11945'
p98
(dp99
g3
F1.739255
sg4
F0.32543500000000003
sg5
F0.488152
sg6
I1945
sg7
F0.3
ssS'11942'
p100
(dp101
g3
F1.656469
sg4
F0.316143
sg5
F0.47421399999999997
sg6
I1942
sg7
F0.3
ssS'11943'
p102
(dp103
g3
F1.711189
sg4
F0.321556
sg5
F0.48233400000000004
sg6
I1943
sg7
F0.3
ssS'11940'
p104
(dp105
g3
F1.4920959999999999
sg4
F0.303277
sg5
F0.454916
sg6
I1940
sg7
F0.3
ssS'11941'
p106
(dp107
g3
F1.565065
sg4
F0.303624
sg5
F0.45543599999999995
sg6
I1941
sg7
F0.3
ssS'12235'
p108
(dp109
g3
F1.714063
sg4
F0.407001
sg5
F0.610501
sg6
I2235
sg7
F0.3
ssS'12234'
p110
(dp111
g3
F1.700623
sg4
F0.403809
sg5
F0.605714
sg6
I2234
sg7
F0.3
ssS'12237'
p112
(dp113
g3
F2.1344220000000003
sg4
F0.56271
sg5
F0.844065
sg6
I2237
sg7
F0.3
ssS'12236'
p114
(dp115
g3
F2.021284
sg4
F0.574261
sg5
F0.861391
sg6
I2236
sg7
F0.3
ssS'12231'
p116
(dp117
g3
F1.8095240000000001
sg4
F0.469551
sg5
F0.7043269999999999
sg6
I2231
sg7
F0.3
ssS'12230'
p118
(dp119
g3
F1.6023679999999998
sg4
F0.33661
sg5
F0.504915
sg6
I2230
sg7
F0.3
ssS'12233'
p120
(dp121
g3
F1.686129
sg4
F0.400368
sg5
F0.600552
sg6
I2233
sg7
F0.3
ssS'12232'
p122
(dp123
g3
F1.6718279999999999
sg4
F0.405146
sg5
F0.607719
sg6
I2232
sg7
F0.3
ssS'12239'
p124
(dp125
g3
F1.9165880000000002
sg4
F0.42134900000000003
sg5
F0.632023
sg6
I2239
sg7
F0.3
ssS'12238'
p126
(dp127
g3
F1.8795330000000001
sg4
F0.463324
sg5
F0.6949850000000001
sg6
I2238
sg7
F0.3
ssS'13058'
p128
(dp129
g3
F1.687797
sg4
F0.33755899999999994
sg5
F1.237718
sg6
I3058
sg7
F0.2
ssS'13059'
p130
(dp131
g3
F2.966964
sg4
F1.011649
sg5
F1.517474
sg6
I3059
sg7
F0.3
ssS'13052'
p132
(dp133
g3
F2.663587
sg4
F0.729859
sg5
F1.094788
sg6
I3052
sg7
F0.3
ssS'13053'
p134
(dp135
g3
F2.6277589999999997
sg4
F0.731456
sg5
F1.097184
sg6
I3053
sg7
F0.3
ssS'13050'
p136
(dp137
g3
F2.755339
sg4
F0.724257
sg5
F1.086386
sg6
I3050
sg7
F0.3
ssS'13051'
p138
(dp139
g3
F2.695909
sg4
F0.72468
sg5
F1.087021
sg6
I3051
sg7
F0.3
ssS'13056'
p140
(dp141
g3
F1.7322710000000001
sg4
F0.34645400000000004
sg5
F1.270332
sg6
I3056
sg7
F0.2
ssS'13057'
p142
(dp143
g3
F1.714947
sg4
F0.34298900000000004
sg5
F1.257628
sg6
I3057
sg7
F0.2
ssS'13054'
p144
(dp145
g3
F4.098424
sg4
F0.802182
sg5
F1.203274
sg6
I3054
sg7
F0.3
ssS'13055'
p146
(dp147
g3
F4.412628000000001
sg4
F1.021053
sg5
F1.53158
sg6
I3055
sg7
F0.3
ssS'12949'
p148
(dp149
g3
F2.0931800000000003
sg4
F0.378952
sg5
F0.5684279999999999
sg6
I2949
sg7
F0.3
ssS'12948'
p150
(dp151
g3
F2.116631
sg4
F0.383198
sg5
F0.574797
sg6
I2948
sg7
F0.3
ssS'12943'
p152
(dp153
g3
F2.043373
sg4
F0.36993499999999996
sg5
F0.5549029999999999
sg6
I2943
sg7
F0.3
ssS'12942'
p154
(dp155
g3
F2.066361
sg4
F0.374097
sg5
F0.561145
sg6
I2942
sg7
F0.3
ssS'12941'
p156
(dp157
g3
F2.089872
sg4
F0.37835299999999994
sg5
F0.56753
sg6
I2941
sg7
F0.3
ssS'12940'
p158
(dp159
g3
F2.080666
sg4
F0.376687
sg5
F0.56503
sg6
I2940
sg7
F0.3
ssS'12947'
p160
(dp161
g3
F2.074139
sg4
F0.375505
sg5
F0.563258
sg6
I2947
sg7
F0.3
ssS'12946'
p162
(dp163
g3
F2.065071
sg4
F0.373863
sg5
F0.560795
sg6
I2946
sg7
F0.3
ssS'12945'
p164
(dp165
g3
F2.216866
sg4
F0.731385
sg5
F1.097078
sg6
I2945
sg7
F0.3
ssS'12944'
p166
(dp167
g3
F2.177728
sg4
F0.718473
sg5
F1.07771
sg6
I2944
sg7
F0.3
ssS'12491'
p168
(dp169
g3
F2.318721
sg4
F0.5796800000000001
sg5
F1.739041
sg6
I2491
sg7
F0.2
ssS'12490'
p170
(dp171
g3
F2.318721
sg4
F0.5796800000000001
sg5
F1.739041
sg6
I2490
sg7
F0.2
ssS'12493'
p172
(dp173
g3
F2.318721
sg4
F0.5796800000000001
sg5
F1.739041
sg6
I2493
sg7
F0.2
ssS'12492'
p174
(dp175
g3
F2.318721
sg4
F0.5796800000000001
sg5
F1.739041
sg6
I2492
sg7
F0.2
ssS'12495'
p176
(dp177
g3
F2.318721
sg4
F0.5796800000000001
sg5
F1.739041
sg6
I2495
sg7
F0.2
ssS'12494'
p178
(dp179
g3
F2.333212
sg4
F0.583303
sg5
F1.7499090000000002
sg6
I2494
sg7
F0.2
ssS'12497'
p180
(dp181
g3
F2.318721
sg4
F0.5796800000000001
sg5
F1.739041
sg6
I2497
sg7
F0.2
ssS'12496'
p182
(dp183
g3
F2.318721
sg4
F0.5796800000000001
sg5
F1.739041
sg6
I2496
sg7
F0.2
ssS'12499'
p184
(dp185
g3
F2.518856
sg4
F0.656249
sg5
F1.8979869999999999
sg6
I2499
sg7
F0.2
ssS'12498'
p186
(dp187
g3
F2.318721
sg4
F0.5796800000000001
sg5
F1.739041
sg6
I2498
sg7
F0.2
ssS'12833'
p188
(dp189
g3
F2.0218369999999997
sg4
F0.42768700000000004
sg5
F0.64153
sg6
I2833
sg7
F0.3
ssS'12832'
p190
(dp191
g3
F2.030923
sg4
F0.42734900000000003
sg5
F0.641023
sg6
I2832
sg7
F0.3
ssS'12831'
p192
(dp193
g3
F2.040587
sg4
F0.427157
sg5
F0.640736
sg6
I2831
sg7
F0.3
ssS'12830'
p194
(dp195
g3
F2.049665
sg4
F0.426838
sg5
F0.640258
sg6
I2830
sg7
F0.3
ssS'12837'
p196
(dp197
g3
F1.87582
sg4
F0.411038
sg5
F0.616557
sg6
I2837
sg7
F0.3
ssS'12836'
p198
(dp199
g3
F1.888671
sg4
F0.417028
sg5
F0.625541
sg6
I2836
sg7
F0.3
ssS'12835'
p200
(dp201
g3
F1.9619810000000002
sg4
F0.421722
sg5
F0.632583
sg6
I2835
sg7
F0.3
ssS'12834'
p202
(dp203
g3
F2.012288
sg4
F0.427938
sg5
F0.6419070000000001
sg6
I2834
sg7
F0.3
ssS'12839'
p204
(dp205
g3
F1.9536580000000001
sg4
F0.41802999999999996
sg5
F0.6270450000000001
sg6
I2839
sg7
F0.3
ssS'12838'
p206
(dp207
g3
F1.900118
sg4
F0.41852200000000006
sg5
F0.627783
sg6
I2838
sg7
F0.3
ssS'12712'
p208
(dp209
g3
F1.889006
sg4
F0.46293399999999996
sg5
F0.6944
sg6
I2712
sg7
F0.3
ssS'12713'
p210
(dp211
g3
F1.9406299999999999
sg4
F0.458868
sg5
F0.688301
sg6
I2713
sg7
F0.3
ssS'12710'
p212
(dp213
g3
F0.84068
sg4
F0.24189800000000003
sg5
F0.36284700000000003
sg6
I2710
sg7
F0.3
ssS'12711'
p214
(dp215
g3
F1.889006
sg4
F0.391793
sg5
F0.5876899999999999
sg6
I2711
sg7
F0.3
ssS'12716'
p216
(dp217
g3
F2.460485
sg4
F0.49637
sg5
F0.744555
sg6
I2716
sg7
F0.3
ssS'12717'
p218
(dp219
g3
F2.425247
sg4
F0.46602499999999997
sg5
F0.699037
sg6
I2717
sg7
F0.3
ssS'12714'
p220
(dp221
g3
F1.9672399999999999
sg4
F0.45686
sg5
F0.68529
sg6
I2714
sg7
F0.3
ssS'12715'
p222
(dp223
g3
F2.410769
sg4
F0.553184
sg5
F0.829776
sg6
I2715
sg7
F0.3
ssS'12718'
p224
(dp225
g3
F2.425247
sg4
F0.46602499999999997
sg5
F0.699037
sg6
I2718
sg7
F0.3
ssS'12719'
p226
(dp227
g3
F2.425247
sg4
F0.46602499999999997
sg5
F0.699037
sg6
I2719
sg7
F0.3
ssS'11757'
p228
(dp229
g3
F2.768626
sg4
F0.692157
sg5
F2.0085319999999998
sg6
I1757
sg7
F0.3
ssS'11756'
p230
(dp231
g3
F2.6702890000000004
sg4
F0.6675719999999999
sg5
F1.923871
sg6
I1756
sg7
F0.3
ssS'11755'
p232
(dp233
g3
F2.8785629999999998
sg4
F0.719641
sg5
F2.001959
sg6
I1755
sg7
F0.3
ssS'11754'
p234
(dp235
g3
F2.8589710000000004
sg4
F0.714743
sg5
F1.980226
sg6
I1754
sg7
F0.3
ssS'11753'
p236
(dp237
g3
F2.8961309999999996
sg4
F0.724033
sg5
F2.019415
sg6
I1753
sg7
F0.3
ssS'11752'
p238
(dp239
g3
F2.70502
sg4
F0.676255
sg5
F1.956095
sg6
I1752
sg7
F0.3
ssS'12008'
p240
(dp241
g3
F2.282183
sg4
F0.509986
sg5
F0.764979
sg6
I2008
sg7
F0.3
ssS'12009'
p242
(dp243
g3
F2.301744
sg4
F0.502491
sg5
F0.753736
sg6
I2009
sg7
F0.3
ssS'12006'
p244
(dp245
g3
F2.302683
sg4
F0.50611
sg5
F0.759164
sg6
I2006
sg7
F0.3
ssS'12007'
p246
(dp247
g3
F2.272637
sg4
F0.513171
sg5
F0.769756
sg6
I2007
sg7
F0.3
ssS'12004'
p248
(dp249
g3
F2.219048
sg4
F0.535558
sg5
F0.803337
sg6
I2004
sg7
F0.3
ssS'12005'
p250
(dp251
g3
F2.233571
sg4
F0.528604
sg5
F0.792906
sg6
I2005
sg7
F0.3
ssS'12002'
p252
(dp253
g3
F2.366117
sg4
F0.57763
sg5
F0.866444
sg6
I2002
sg7
F0.3
ssS'12003'
p254
(dp255
g3
F2.2984780000000002
sg4
F0.547088
sg5
F0.8206319999999999
sg6
I2003
sg7
F0.3
ssS'12000'
p256
(dp257
g3
F1.367057
sg4
F0.29837199999999997
sg5
F0.447557
sg6
I2000
sg7
F0.3
ssS'12001'
p258
(dp259
g3
F1.8309889999999998
sg4
F0.457747
sg5
F1.3732419999999999
sg6
I2001
sg7
F0.2
ssS'12138'
p260
(dp261
g3
F1.92178
sg4
F0.5751740000000001
sg5
F1.5054750000000001
sg6
I2138
sg7
F0.2
ssS'12139'
p262
(dp263
g3
F1.523758
sg4
F0.449919
sg5
F1.1658110000000002
sg6
I2139
sg7
F0.2
ssS'12132'
p264
(dp265
g3
F1.110786
sg4
F0.302259
sg5
F0.841277
sg6
I2132
sg7
F0.2
ssS'12133'
p266
(dp267
g3
F2.914237
sg4
F1.425304
sg5
F2.074326
sg6
I2133
sg7
F0.3
ssS'12130'
p268
(dp269
g3
F1.110786
sg4
F0.302259
sg5
F0.841277
sg6
I2130
sg7
F0.2
ssS'12131'
p270
(dp271
g3
F1.110786
sg4
F0.302259
sg5
F0.841277
sg6
I2131
sg7
F0.2
ssS'12136'
p272
(dp273
g3
F1.5298720000000001
sg4
F0.38246800000000003
sg5
F1.1474039999999999
sg6
I2136
sg7
F0.2
ssS'12137'
p274
(dp275
g3
F1.592554
sg4
F0.398138
sg5
F1.194415
sg6
I2137
sg7
F0.2
ssS'12134'
p276
(dp277
g3
F1.882191
sg4
F0.470548
sg5
F1.411643
sg6
I2134
sg7
F0.2
ssS'12135'
p278
(dp279
g3
F1.653384
sg4
F0.413346
sg5
F1.240038
sg6
I2135
sg7
F0.2
ssS'11979'
p280
(dp281
g3
F2.227047
sg4
F0.478089
sg5
F0.717133
sg6
I1979
sg7
F0.3
ssS'11978'
p282
(dp283
g3
F2.20668
sg4
F0.490396
sg5
F0.7355929999999999
sg6
I1978
sg7
F0.3
ssS'11973'
p284
(dp285
g3
F2.283835
sg4
F0.5532
sg5
F0.8298000000000001
sg6
I1973
sg7
F0.3
ssS'11972'
p286
(dp287
g3
F1.375772
sg4
F0.329606
sg5
F0.494409
sg6
I1972
sg7
F0.3
ssS'11971'
p288
(dp289
g3
F1.451265
sg4
F0.338857
sg5
F0.508286
sg6
I1971
sg7
F0.3
ssS'11970'
p290
(dp291
g3
F1.493441
sg4
F0.34136000000000005
sg5
F0.51204
sg6
I1970
sg7
F0.3
ssS'11977'
p292
(dp293
g3
F2.245269
sg4
F0.486006
sg5
F0.7290089999999999
sg6
I1977
sg7
F0.3
ssS'11976'
p294
(dp295
g3
F2.260561
sg4
F0.52211
sg5
F0.783165
sg6
I1976
sg7
F0.3
ssS'11975'
p296
(dp297
g3
F2.175711
sg4
F0.543928
sg5
F0.886775
sg6
I1975
sg7
F0.3
ssS'11974'
p298
(dp299
g3
F2.298983
sg4
F0.538081
sg5
F0.8071210000000001
sg6
I1974
sg7
F0.3
ssS'12226'
p300
(dp301
g3
F1.773107
sg4
F0.51815
sg5
F0.7772249999999999
sg6
I2226
sg7
F0.3
ssS'12227'
p302
(dp303
g3
F2.101804
sg4
F0.49080100000000004
sg5
F0.7362009999999999
sg6
I2227
sg7
F0.3
ssS'12224'
p304
(dp305
g3
F1.914668
sg4
F0.586093
sg5
F0.87914
sg6
I2224
sg7
F0.3
ssS'12225'
p306
(dp307
g3
F2.0336410000000003
sg4
F0.613
sg5
F0.919499
sg6
I2225
sg7
F0.3
ssS'12222'
p308
(dp309
g3
F1.9211600000000002
sg4
F0.624923
sg5
F0.937384
sg6
I2222
sg7
F0.3
ssS'12223'
p310
(dp311
g3
F1.897964
sg4
F0.58752
sg5
F0.88128
sg6
I2223
sg7
F0.3
ssS'12220'
p312
(dp313
g3
F1.878479
sg4
F0.660467
sg5
F0.9907009999999999
sg6
I2220
sg7
F0.3
ssS'12221'
p314
(dp315
g3
F1.9187
sg4
F0.6500020000000001
sg5
F0.975003
sg6
I2221
sg7
F0.3
ssS'12228'
p316
(dp317
g3
F1.7085059999999999
sg4
F0.394048
sg5
F0.591072
sg6
I2228
sg7
F0.3
ssS'12229'
p318
(dp319
g3
F1.7630009999999998
sg4
F0.38689300000000004
sg5
F0.58034
sg6
I2229
sg7
F0.3
ssS'13067'
p320
(dp321
g3
F2.8306
sg4
F0.669709
sg5
F1.004563
sg6
I3067
sg7
F0.3
ssS'13066'
p322
(dp323
g3
F3.136635
sg4
F0.777193
sg5
F1.1657899999999999
sg6
I3066
sg7
F0.3
ssS'13065'
p324
(dp325
g3
F3.118211
sg4
F0.774178
sg5
F1.161267
sg6
I3065
sg7
F0.3
ssS'13064'
p326
(dp327
g3
F2.668913
sg4
F0.707449
sg5
F1.061173
sg6
I3064
sg7
F0.3
ssS'13063'
p328
(dp329
g3
F2.6123570000000003
sg4
F0.857023
sg5
F1.285535
sg6
I3063
sg7
F0.3
ssS'13062'
p330
(dp331
g3
F2.307188
sg4
F0.7767829999999999
sg5
F1.165174
sg6
I3062
sg7
F0.3
ssS'13061'
p332
(dp333
g3
F2.288819
sg4
F0.7865340000000001
sg5
F1.1798009999999999
sg6
I3061
sg7
F0.3
ssS'13060'
p334
(dp335
g3
F2.555565
sg4
F0.892197
sg5
F1.338295
sg6
I3060
sg7
F0.3
ssS'13069'
p336
(dp337
g3
F2.920559
sg4
F0.652117
sg5
F0.9781749999999999
sg6
I3069
sg7
F0.3
ssS'13068'
p338
(dp339
g3
F2.746194
sg4
F0.6407240000000001
sg5
F0.961086
sg6
I3068
sg7
F0.3
ssS'12954'
p340
(dp341
g3
F2.141307
sg4
F0.387665
sg5
F0.581498
sg6
I2954
sg7
F0.3
ssS'12955'
p342
(dp343
g3
F2.151059
sg4
F0.389431
sg5
F0.584146
sg6
I2955
sg7
F0.3
ssS'12956'
p344
(dp345
g3
F2.196796
sg4
F0.397711
sg5
F0.596567
sg6
I2956
sg7
F0.3
ssS'12957'
p346
(dp347
g3
F2.207799
sg4
F0.39970300000000003
sg5
F0.5995539999999999
sg6
I2957
sg7
F0.3
ssS'12950'
p348
(dp349
g3
F2.136464
sg4
F0.386788
sg5
F0.580183
sg6
I2950
sg7
F0.3
ssS'12951'
p350
(dp351
g3
F2.1118989999999997
sg4
F0.382341
sg5
F0.573512
sg6
I2951
sg7
F0.3
ssS'12952'
p352
(dp353
g3
F2.0878929999999998
sg4
F0.377995
sg5
F0.566993
sg6
I2952
sg7
F0.3
ssS'12953'
p354
(dp355
g3
F2.131643
sg4
F0.385916
sg5
F0.5788730000000001
sg6
I2953
sg7
F0.3
ssS'12958'
p356
(dp357
g3
F2.181576
sg4
F0.39495600000000003
sg5
F0.592433
sg6
I2958
sg7
F0.3
ssS'12959'
p358
(dp359
g3
F2.266835
sg4
F0.41039099999999995
sg5
F0.615586
sg6
I2959
sg7
F0.3
ssS'12482'
p360
(dp361
g3
F2.335941
sg4
F0.583985
sg5
F1.751956
sg6
I2482
sg7
F0.2
ssS'12483'
p362
(dp363
g3
F2.317977
sg4
F0.579494
sg5
F1.738483
sg6
I2483
sg7
F0.2
ssS'12480'
p364
(dp365
g3
F2.233591
sg4
F0.558398
sg5
F1.675193
sg6
I2480
sg7
F0.2
ssS'12481'
p366
(dp367
g3
F2.317875
sg4
F0.579469
sg5
F1.738406
sg6
I2481
sg7
F0.2
ssS'12486'
p368
(dp369
g3
F2.318721
sg4
F0.5796800000000001
sg5
F1.739041
sg6
I2486
sg7
F0.2
ssS'12487'
p370
(dp371
g3
F2.318721
sg4
F0.5796800000000001
sg5
F1.739041
sg6
I2487
sg7
F0.2
ssS'12484'
p372
(dp373
g3
F2.282864
sg4
F0.570716
sg5
F1.712148
sg6
I2484
sg7
F0.2
ssS'12485'
p374
(dp375
g3
F2.277946
sg4
F0.570556
sg5
F1.708816
sg6
I2485
sg7
F0.2
ssS'12488'
p376
(dp377
g3
F2.318721
sg4
F0.5796800000000001
sg5
F1.739041
sg6
I2488
sg7
F0.2
ssS'12489'
p378
(dp379
g3
F2.318721
sg4
F0.5796800000000001
sg5
F1.739041
sg6
I2489
sg7
F0.2
ssS'12828'
p380
(dp381
g3
F2.039039
sg4
F0.427155
sg5
F0.640732
sg6
I2828
sg7
F0.3
ssS'12829'
p382
(dp383
g3
F2.0586420000000003
sg4
F0.42651000000000006
sg5
F0.639765
sg6
I2829
sg7
F0.3
ssS'12824'
p384
(dp385
g3
F1.812894
sg4
F0.382008
sg5
F0.573012
sg6
I2824
sg7
F0.3
ssS'12825'
p386
(dp387
g3
F1.8048320000000002
sg4
F0.382376
sg5
F0.573564
sg6
I2825
sg7
F0.3
ssS'12826'
p388
(dp389
g3
F2.058005
sg4
F0.426694
sg5
F0.640041
sg6
I2826
sg7
F0.3
ssS'12827'
p390
(dp391
g3
F2.018733
sg4
F0.427701
sg5
F0.6415510000000001
sg6
I2827
sg7
F0.3
ssS'12820'
p392
(dp393
g3
F2.025407
sg4
F0.427517
sg5
F0.6412749999999999
sg6
I2820
sg7
F0.3
ssS'12821'
p394
(dp395
g3
F2.0458510000000003
sg4
F0.427016
sg5
F0.6405230000000001
sg6
I2821
sg7
F0.3
ssS'12822'
p396
(dp397
g3
F2.065404
sg4
F0.426376
sg5
F0.639563
sg6
I2822
sg7
F0.3
ssS'12823'
p398
(dp399
g3
F1.8220500000000002
sg4
F0.381868
sg5
F0.572802
sg6
I2823
sg7
F0.3
ssS'12729'
p400
(dp401
g3
F1.849002
sg4
F0.380654
sg5
F0.5709810000000001
sg6
I2729
sg7
F0.3
ssS'12728'
p402
(dp403
g3
F1.84803
sg4
F0.38065899999999997
sg5
F0.5709879999999999
sg6
I2728
sg7
F0.3
ssS'12727'
p404
(dp405
g3
F1.8203880000000001
sg4
F0.381237
sg5
F0.571856
sg6
I2727
sg7
F0.3
ssS'12726'
p406
(dp407
g3
F2.249551
sg4
F0.43063
sg5
F0.645944
sg6
I2726
sg7
F0.3
ssS'12725'
p408
(dp409
g3
F2.19578
sg4
F0.422179
sg5
F0.633269
sg6
I2725
sg7
F0.3
ssS'12724'
p410
(dp411
g3
F2.530945
sg4
F0.535574
sg5
F0.803361
sg6
I2724
sg7
F0.3
ssS'12723'
p412
(dp413
g3
F2.5031809999999997
sg4
F0.597188
sg5
F0.895782
sg6
I2723
sg7
F0.3
ssS'12722'
p414
(dp415
g3
F2.5031809999999997
sg4
F0.597188
sg5
F0.895782
sg6
I2722
sg7
F0.3
ssS'12721'
p416
(dp417
g3
F2.6154230000000003
sg4
F0.501077
sg5
F0.751615
sg6
I2721
sg7
F0.3
ssS'12720'
p418
(dp419
g3
F2.651949
sg4
F0.506736
sg5
F0.760104
sg6
I2720
sg7
F0.3
ssS'12039'
p420
(dp421
g3
F2.198271
sg4
F0.524486
sg5
F0.786728
sg6
I2039
sg7
F0.3
ssS'12038'
p422
(dp423
g3
F2.326677
sg4
F0.576298
sg5
F0.8644459999999999
sg6
I2038
sg7
F0.3
ssS'11744'
p424
(dp425
g3
F2.8612599999999997
sg4
F0.572252
sg5
F2.0982570000000003
sg6
I1744
sg7
F0.2
ssS'11745'
p426
(dp427
g3
F2.761734
sg4
F0.5523469999999999
sg5
F2.025271
sg6
I1745
sg7
F0.2
ssS'11746'
p428
(dp429
g3
F2.033706
sg4
F0.406741
sg5
F1.4913839999999998
sg6
I1746
sg7
F0.2
ssS'11747'
p430
(dp431
g3
F2.292603
sg4
F0.465291
sg5
F1.6834989999999999
sg6
I1747
sg7
F0.2
ssS'11748'
p432
(dp433
g3
F2.3482
sg4
F0.46964
sg5
F1.722013
sg6
I1748
sg7
F0.2
ssS'12032'
p434
(dp435
g3
F2.196805
sg4
F0.529147
sg5
F0.79372
sg6
I2032
sg7
F0.3
ssS'12031'
p436
(dp437
g3
F2.186969
sg4
F0.53061
sg5
F0.7959139999999999
sg6
I2031
sg7
F0.3
ssS'12030'
p438
(dp439
g3
F2.177172
sg4
F0.532197
sg5
F0.798295
sg6
I2030
sg7
F0.3
ssS'12037'
p440
(dp441
g3
F2.2127440000000003
sg4
F0.548377
sg5
F0.822565
sg6
I2037
sg7
F0.3
ssS'12036'
p442
(dp443
g3
F2.363564
sg4
F0.50414
sg5
F0.756209
sg6
I2036
sg7
F0.3
ssS'12035'
p444
(dp445
g3
F2.370822
sg4
F0.496989
sg5
F0.745483
sg6
I2035
sg7
F0.3
ssS'12034'
p446
(dp447
g3
F2.349201
sg4
F0.547625
sg5
F0.821438
sg6
I2034
sg7
F0.3
ssS'12107'
p448
(dp449
g3
F2.1788089999999998
sg4
F0.608478
sg5
F0.912717
sg6
I2107
sg7
F0.3
ssS'12106'
p450
(dp451
g3
F1.944188
sg4
F0.55576
sg5
F0.833641
sg6
I2106
sg7
F0.3
ssS'12105'
p452
(dp453
g3
F3.045032
sg4
F0.670181
sg5
F1.005271
sg6
I2105
sg7
F0.3
ssS'12104'
p454
(dp455
g3
F2.5143459999999997
sg4
F0.582793
sg5
F0.87419
sg6
I2104
sg7
F0.3
ssS'12103'
p456
(dp457
g3
F2.926175
sg4
F0.526979
sg5
F0.7904680000000001
sg6
I2103
sg7
F0.3
ssS'12102'
p458
(dp459
g3
F2.922422
sg4
F0.527367
sg5
F0.79105
sg6
I2102
sg7
F0.3
ssS'12101'
p460
(dp461
g3
F2.86877
sg4
F0.512866
sg5
F0.7692990000000001
sg6
I2101
sg7
F0.3
ssS'12100'
p462
(dp463
g3
F2.761504
sg4
F0.6189439999999999
sg5
F0.928416
sg6
I2100
sg7
F0.3
ssS'12109'
p464
(dp465
g3
F3.06474
sg4
F0.537025
sg5
F0.805538
sg6
I2109
sg7
F0.3
ssS'12108'
p466
(dp467
g3
F2.75337
sg4
F0.743639
sg5
F1.115459
sg6
I2108
sg7
F0.3
ssS'12213'
p468
(dp469
g3
F1.861517
sg4
F0.529333
sg5
F0.794
sg6
I2213
sg7
F0.3
ssS'12212'
p470
(dp471
g3
F1.9341560000000002
sg4
F0.574945
sg5
F0.862417
sg6
I2212
sg7
F0.3
ssS'12211'
p472
(dp473
g3
F2.033314
sg4
F0.580899
sg5
F0.92644
sg6
I2211
sg7
F0.3
ssS'12210'
p474
(dp475
g3
F1.922962
sg4
F0.607062
sg5
F0.9105920000000001
sg6
I2210
sg7
F0.3
ssS'12217'
p476
(dp477
g3
F1.8234430000000001
sg4
F0.455861
sg5
F0.7351829999999999
sg6
I2217
sg7
F0.3
ssS'12216'
p478
(dp479
g3
F1.871173
sg4
F0.467793
sg5
F1.4033799999999998
sg6
I2216
sg7
F0.2
ssS'12215'
p480
(dp481
g3
F2.0048310000000003
sg4
F0.501208
sg5
F0.795654
sg6
I2215
sg7
F0.3
ssS'12214'
p482
(dp483
g3
F1.2974189999999999
sg4
F0.422105
sg5
F0.633157
sg6
I2214
sg7
F0.3
ssS'12219'
p484
(dp485
g3
F1.656961
sg4
F0.456255
sg5
F0.6843819999999999
sg6
I2219
sg7
F0.3
ssS'12218'
p486
(dp487
g3
F1.817462
sg4
F0.473579
sg5
F0.710369
sg6
I2218
sg7
F0.3
ssS'13070'
p488
(dp489
g3
F2.900532
sg4
F0.6391020000000001
sg5
F0.9586539999999999
sg6
I3070
sg7
F0.3
ssS'13071'
p490
(dp491
g3
F3.001588
sg4
F0.650663
sg5
F0.9759950000000001
sg6
I3071
sg7
F0.3
ssS'13072'
p492
(dp493
g3
F3.125935
sg4
F0.686594
sg5
F1.02989
sg6
I3072
sg7
F0.3
ssS'13073'
p494
(dp495
g3
F3.462645
sg4
F1.016443
sg5
F1.524664
sg6
I3073
sg7
F0.3
ssS'13074'
p496
(dp497
g3
F3.529613
sg4
F1.045435
sg5
F1.568152
sg6
I3074
sg7
F0.3
ssS'13075'
p498
(dp499
g3
F2.967081
sg4
F0.743237
sg5
F1.114856
sg6
I3075
sg7
F0.3
ssS'13076'
p500
(dp501
g3
F2.323944
sg4
F0.876725
sg5
F1.3870490000000002
sg6
I3076
sg7
F0.3
ssS'13077'
p502
(dp503
g3
F2.206756
sg4
F0.804001
sg5
F1.3171059999999999
sg6
I3077
sg7
F0.3
ssS'13078'
p504
(dp505
g3
F2.1003469999999997
sg4
F0.759448
sg5
F1.253595
sg6
I3078
sg7
F0.3
ssS'13079'
p506
(dp507
g3
F2.167249
sg4
F0.729008
sg5
F1.293526
sg6
I3079
sg7
F0.3
ssS'11964'
p508
(dp509
g3
F1.5905799999999999
sg4
F0.30625399999999997
sg5
F0.45938
sg6
I1964
sg7
F0.3
ssS'11965'
p510
(dp511
g3
F1.463704
sg4
F0.29491700000000004
sg5
F0.44237499999999996
sg6
I1965
sg7
F0.3
ssS'11966'
p512
(dp513
g3
F1.444218
sg4
F0.30164
sg5
F0.45246000000000003
sg6
I1966
sg7
F0.3
ssS'11967'
p514
(dp515
g3
F1.337347
sg4
F0.279843
sg5
F0.41976399999999997
sg6
I1967
sg7
F0.3
ssS'11960'
p516
(dp517
g3
F1.612003
sg4
F0.333653
sg5
F0.50048
sg6
I1960
sg7
F0.3
ssS'11961'
p518
(dp519
g3
F1.599974
sg4
F0.334788
sg5
F0.502181
sg6
I1961
sg7
F0.3
ssS'11962'
p520
(dp521
g3
F1.5816409999999999
sg4
F0.336153
sg5
F0.504229
sg6
I1962
sg7
F0.3
ssS'11963'
p522
(dp523
g3
F1.614277
sg4
F0.307643
sg5
F0.461464
sg6
I1963
sg7
F0.3
ssS'11968'
p524
(dp525
g3
F1.4640039999999999
sg4
F0.330188
sg5
F0.495282
sg6
I1968
sg7
F0.3
ssS'11969'
p526
(dp527
g3
F1.496729
sg4
F0.337339
sg5
F0.506009
sg6
I1969
sg7
F0.3
ssS'12921'
p528
(dp529
g3
F2.081976
sg4
F0.376924
sg5
F0.565386
sg6
I2921
sg7
F0.3
ssS'12920'
p530
(dp531
g3
F2.051615
sg4
F0.37142699999999995
sg5
F0.557141
sg6
I2920
sg7
F0.3
ssS'12923'
p532
(dp533
g3
F2.094506
sg4
F0.379192
sg5
F0.568789
sg6
I2923
sg7
F0.3
ssS'12922'
p534
(dp535
g3
F2.07479
sg4
F0.375623
sg5
F0.563434
sg6
I2922
sg7
F0.3
ssS'12925'
p536
(dp537
g3
F2.080666
sg4
F0.376687
sg5
F0.56503
sg6
I2925
sg7
F0.3
ssS'12924'
p538
(dp539
g3
F2.109205
sg4
F0.381853
sg5
F0.57278
sg6
I2924
sg7
F0.3
ssS'12927'
p540
(dp541
g3
F2.034571
sg4
F0.368342
sg5
F0.552512
sg6
I2927
sg7
F0.3
ssS'12926'
p542
(dp543
g3
F2.05736
sg4
F0.372467
sg5
F0.558701
sg6
I2926
sg7
F0.3
ssS'12929'
p544
(dp545
g3
F2.052252
sg4
F0.371543
sg5
F0.557314
sg6
I2929
sg7
F0.3
ssS'12928'
p546
(dp547
g3
F2.0754409999999996
sg4
F0.375741
sg5
F0.563611
sg6
I2928
sg7
F0.3
ssS'12859'
p548
(dp549
g3
F3.288522
sg4
F0.735372
sg5
F1.233196
sg6
I2859
sg7
F0.2
ssS'12858'
p550
(dp551
g3
F3.456143
sg4
F0.745556
sg5
F1.296054
sg6
I2858
sg7
F0.2
ssS'12589'
p552
(dp553
g3
F1.9971109999999999
sg4
F0.444291
sg5
F0.666437
sg6
I2589
sg7
F0.3
ssS'12588'
p554
(dp555
g3
F1.979461
sg4
F0.44530500000000006
sg5
F0.6679569999999999
sg6
I2588
sg7
F0.3
ssS'12851'
p556
(dp557
g3
F2.034656
sg4
F0.416019
sg5
F0.624028
sg6
I2851
sg7
F0.3
ssS'12850'
p558
(dp559
g3
F2.013816
sg4
F0.416261
sg5
F0.624391
sg6
I2850
sg7
F0.3
ssS'12853'
p560
(dp561
g3
F1.833438
sg4
F0.381596
sg5
F0.572395
sg6
I2853
sg7
F0.3
ssS'12852'
p562
(dp563
g3
F1.840554
sg4
F0.381598
sg5
F0.572397
sg6
I2852
sg7
F0.3
ssS'12855'
p564
(dp565
g3
F2.5725080000000005
sg4
F0.531008
sg5
F0.796512
sg6
I2855
sg7
F0.3
ssS'12854'
p566
(dp567
g3
F2.633852
sg4
F0.531248
sg5
F0.796872
sg6
I2854
sg7
F0.3
ssS'12585'
p568
(dp569
g3
F1.9833340000000002
sg4
F0.445235
sg5
F0.667853
sg6
I2585
sg7
F0.3
ssS'12584'
p570
(dp571
g3
F1.993507
sg4
F0.444571
sg5
F0.6668559999999999
sg6
I2584
sg7
F0.3
ssS'12455'
p572
(dp573
g3
F2.423219
sg4
F0.622771
sg5
F1.82307
sg6
I2455
sg7
F0.2
ssS'12454'
p574
(dp575
g3
F2.419923
sg4
F0.623058
sg5
F1.820968
sg6
I2454
sg7
F0.2
ssS'12457'
p576
(dp577
g3
F2.233523
sg4
F0.558381
sg5
F1.6751429999999998
sg6
I2457
sg7
F0.2
ssS'12456'
p578
(dp579
g3
F2.309919
sg4
F0.57748
sg5
F1.732439
sg6
I2456
sg7
F0.2
ssS'12451'
p580
(dp581
g3
F2.419403
sg4
F0.604851
sg5
F1.814552
sg6
I2451
sg7
F0.2
ssS'12450'
p582
(dp583
g3
F2.3615209999999998
sg4
F0.59038
sg5
F1.77114
sg6
I2450
sg7
F0.2
ssS'12453'
p584
(dp585
g3
F2.465461
sg4
F0.635263
sg5
F1.8553950000000001
sg6
I2453
sg7
F0.2
ssS'12452'
p586
(dp587
g3
F2.425015
sg4
F0.623099
sg5
F1.824376
sg6
I2452
sg7
F0.2
ssS'12459'
p588
(dp589
g3
F2.137114
sg4
F0.615648
sg5
F1.6299590000000002
sg6
I2459
sg7
F0.2
ssS'12458'
p590
(dp591
g3
F2.269721
sg4
F0.56743
sg5
F1.7022909999999998
sg6
I2458
sg7
F0.2
ssS'12738'
p592
(dp593
g3
F2.4121960000000002
sg4
F0.462807
sg5
F0.6942100000000001
sg6
I2738
sg7
F0.3
ssS'12739'
p594
(dp595
g3
F2.381058
sg4
F0.462316
sg5
F0.693473
sg6
I2739
sg7
F0.3
ssS'12730'
p596
(dp597
g3
F1.8512270000000002
sg4
F0.38634
sg5
F0.5795089999999999
sg6
I2730
sg7
F0.3
ssS'12731'
p598
(dp599
g3
F2.467465
sg4
F0.493147
sg5
F0.739721
sg6
I2731
sg7
F0.3
ssS'12732'
p600
(dp601
g3
F2.837654
sg4
F0.539253
sg5
F0.80888
sg6
I2732
sg7
F0.3
ssS'12733'
p602
(dp603
g3
F2.429316
sg4
F0.46336599999999994
sg5
F0.69505
sg6
I2733
sg7
F0.3
ssS'12734'
p604
(dp605
g3
F2.4324529999999998
sg4
F0.46336599999999994
sg5
F0.695049
sg6
I2734
sg7
F0.3
ssS'12735'
p606
(dp607
g3
F2.4368819999999998
sg4
F0.463611
sg5
F0.6954170000000001
sg6
I2735
sg7
F0.3
ssS'12736'
p608
(dp609
g3
F2.44564
sg4
F0.47147399999999995
sg5
F0.70721
sg6
I2736
sg7
F0.3
ssS'12737'
p610
(dp611
g3
F2.4515960000000003
sg4
F0.47176900000000005
sg5
F0.707653
sg6
I2737
sg7
F0.3
ssS'12682'
p612
(dp613
g3
F1.798907
sg4
F0.412249
sg5
F0.618373
sg6
I2682
sg7
F0.3
ssS'12024'
p614
(dp615
g3
F2.173424
sg4
F0.543356
sg5
F0.867717
sg6
I2024
sg7
F0.3
ssS'12025'
p616
(dp617
g3
F2.178301
sg4
F0.544575
sg5
F0.836224
sg6
I2025
sg7
F0.3
ssS'12026'
p618
(dp619
g3
F2.186436
sg4
F0.507127
sg5
F0.76069
sg6
I2026
sg7
F0.3
ssS'11798'
p620
(dp621
g3
F2.360084
sg4
F0.590021
sg5
F1.6197290000000002
sg6
I1798
sg7
F0.3
ssS'12020'
p622
(dp623
g3
F2.223547
sg4
F0.555887
sg5
F0.870826
sg6
I2020
sg7
F0.3
ssS'12021'
p624
(dp625
g3
F2.213184
sg4
F0.553296
sg5
F0.8939830000000001
sg6
I2021
sg7
F0.3
ssS'12022'
p626
(dp627
g3
F2.1895070000000003
sg4
F0.547377
sg5
F0.910746
sg6
I2022
sg7
F0.3
ssS'12023'
p628
(dp629
g3
F2.31907
sg4
F0.579767
sg5
F0.879214
sg6
I2023
sg7
F0.3
ssS'12028'
p630
(dp631
g3
F2.280167
sg4
F0.500389
sg5
F0.750584
sg6
I2028
sg7
F0.3
ssS'12029'
p632
(dp633
g3
F2.184454
sg4
F0.5187890000000001
sg5
F0.778183
sg6
I2029
sg7
F0.3
ssS'12688'
p634
(dp635
g3
F2.288938
sg4
F0.460653
sg5
F0.690979
sg6
I2688
sg7
F0.3
ssS'11792'
p636
(dp637
g3
F2.39595
sg4
F0.5989869999999999
sg5
F1.796962
sg6
I1792
sg7
F0.2
ssS'12583'
p638
(dp639
g3
F1.975986
sg4
F0.44561
sg5
F0.668414
sg6
I2583
sg7
F0.3
ssS'12582'
p640
(dp641
g3
F1.9862719999999998
sg4
F0.444957
sg5
F0.667436
sg6
I2582
sg7
F0.3
ssS'12581'
p642
(dp643
g3
F1.9964769999999998
sg4
F0.444307
sg5
F0.66646
sg6
I2581
sg7
F0.3
ssS'12110'
p644
(dp645
g3
F3.190826
sg4
F0.55325
sg5
F0.8298749999999999
sg6
I2110
sg7
F0.3
ssS'12111'
p646
(dp647
g3
F3.282202
sg4
F0.567991
sg5
F0.851986
sg6
I2111
sg7
F0.3
ssS'12112'
p648
(dp649
g3
F2.625068
sg4
F0.526096
sg5
F0.7891429999999999
sg6
I2112
sg7
F0.3
ssS'12580'
p650
(dp651
g3
F1.9405299999999999
sg4
F0.42641399999999996
sg5
F0.639622
sg6
I2580
sg7
F0.3
ssS'12114'
p652
(dp653
g3
F3.4953769999999995
sg4
F0.612657
sg5
F0.918986
sg6
I2114
sg7
F0.3
ssS'12115'
p654
(dp655
g3
F3.777573
sg4
F0.679991
sg5
F1.019987
sg6
I2115
sg7
F0.3
ssS'12116'
p656
(dp657
g3
F4.089893
sg4
F0.768336
sg5
F1.152503
sg6
I2116
sg7
F0.3
ssS'12117'
p658
(dp659
g3
F2.19
sg4
F0.615
sg5
F0.8775
sg6
I2117
sg7
F0.4
ssS'12118'
p660
(dp661
g3
F2.19
sg4
F0.615
sg5
F0.8775
sg6
I2118
sg7
F0.4
ssS'12587'
p662
(dp663
g3
F1.962126
sg4
F0.446325
sg5
F0.669487
sg6
I2587
sg7
F0.3
ssS'12586'
p664
(dp665
g3
F2.000094
sg4
F0.444033
sg5
F0.666049
sg6
I2586
sg7
F0.3
ssS'12857'
p666
(dp667
g3
F3.42205
sg4
F0.719348
sg5
F1.283269
sg6
I2857
sg7
F0.2
ssS'12856'
p668
(dp669
g3
F3.309329
sg4
F0.661866
sg5
F1.473708
sg6
I2856
sg7
F0.2
ssS'12208'
p670
(dp671
g3
F1.6622219999999999
sg4
F0.600201
sg5
F0.900301
sg6
I2208
sg7
F0.3
ssS'12209'
p672
(dp673
g3
F1.822882
sg4
F0.625666
sg5
F0.9384990000000001
sg6
I2209
sg7
F0.3
ssS'12204'
p674
(dp675
g3
F1.6894319999999998
sg4
F0.601735
sg5
F0.902603
sg6
I2204
sg7
F0.3
ssS'12205'
p676
(dp677
g3
F1.411841
sg4
F0.45113
sg5
F0.676695
sg6
I2205
sg7
F0.3
ssS'12206'
p678
(dp679
g3
F1.087461
sg4
F0.33564
sg5
F0.503461
sg6
I2206
sg7
F0.3
ssS'12207'
p680
(dp681
g3
F1.078507
sg4
F0.309988
sg5
F0.46498199999999995
sg6
I2207
sg7
F0.3
ssS'12200'
p682
(dp683
g3
F1.4110179999999999
sg4
F0.492973
sg5
F0.739459
sg6
I2200
sg7
F0.3
ssS'12201'
p684
(dp685
g3
F1.415114
sg4
F0.493051
sg5
F0.739576
sg6
I2201
sg7
F0.3
ssS'12202'
p686
(dp687
g3
F1.2803499999999999
sg4
F0.44367199999999996
sg5
F0.665508
sg6
I2202
sg7
F0.3
ssS'12203'
p688
(dp689
g3
F1.481504
sg4
F0.554778
sg5
F0.832168
sg6
I2203
sg7
F0.3
ssS'11829'
p690
(dp691
g3
F2.457726
sg4
F0.6144310000000001
sg5
F1.843294
sg6
I1829
sg7
F0.2
ssS'11828'
p692
(dp693
g3
F2.452157
sg4
F0.613039
sg5
F1.839118
sg6
I1828
sg7
F0.2
ssS'11825'
p694
(dp695
g3
F2.292823
sg4
F0.47575
sg5
F0.713625
sg6
I1825
sg7
F0.3
ssS'11824'
p696
(dp697
g3
F2.298234
sg4
F0.574559
sg5
F0.912551
sg6
I1824
sg7
F0.3
ssS'11827'
p698
(dp699
g3
F2.454384
sg4
F0.613596
sg5
F1.840788
sg6
I1827
sg7
F0.2
ssS'11826'
p700
(dp701
g3
F2.2657499999999997
sg4
F0.5664370000000001
sg5
F0.869216
sg6
I1826
sg7
F0.3
ssS'11821'
p702
(dp703
g3
F2.244911
sg4
F0.561228
sg5
F0.930583
sg6
I1821
sg7
F0.3
ssS'11820'
p704
(dp705
g3
F2.225425
sg4
F0.556356
sg5
F0.953368
sg6
I1820
sg7
F0.3
ssS'11823'
p706
(dp707
g3
F2.278467
sg4
F0.569617
sg5
F1.0089270000000001
sg6
I1823
sg7
F0.3
ssS'11822'
p708
(dp709
g3
F2.134898
sg4
F0.533725
sg5
F0.841031
sg6
I1822
sg7
F0.3
ssS'13089'
p710
(dp711
g3
F1.263449
sg4
F0.308009
sg5
F0.462013
sg6
I3089
sg7
F0.3
ssS'13088'
p712
(dp713
g3
F1.263449
sg4
F0.308009
sg5
F0.462013
sg6
I3088
sg7
F0.3
ssS'13085'
p714
(dp715
g3
F1.263449
sg4
F0.308009
sg5
F0.462013
sg6
I3085
sg7
F0.3
ssS'13084'
p716
(dp717
g3
F2.2864169999999997
sg4
F0.457283
sg5
F1.676706
sg6
I3084
sg7
F0.2
ssS'13087'
p718
(dp719
g3
F1.263449
sg4
F0.308009
sg5
F0.462013
sg6
I3087
sg7
F0.3
ssS'13086'
p720
(dp721
g3
F1.263449
sg4
F0.308009
sg5
F0.462013
sg6
I3086
sg7
F0.3
ssS'13081'
p722
(dp723
g3
F2.617339
sg4
F0.709858
sg5
F1.064786
sg6
I3081
sg7
F0.3
ssS'13080'
p724
(dp725
g3
F2.627569
sg4
F0.7126319999999999
sg5
F1.068948
sg6
I3080
sg7
F0.3
ssS'13083'
p726
(dp727
g3
F2.2864169999999997
sg4
F0.457283
sg5
F1.676706
sg6
I3083
sg7
F0.2
ssS'13082'
p728
(dp729
g3
F2.2864169999999997
sg4
F0.457283
sg5
F1.676706
sg6
I3082
sg7
F0.2
ssS'11911'
p730
(dp731
g3
F2.3611340000000003
sg4
F0.50515
sg5
F0.757725
sg6
I1911
sg7
F0.3
ssS'11910'
p732
(dp733
g3
F2.3535
sg4
F0.5052369999999999
sg5
F0.757855
sg6
I1910
sg7
F0.3
ssS'11913'
p734
(dp735
g3
F2.3910929999999997
sg4
F0.552969
sg5
F0.829453
sg6
I1913
sg7
F0.3
ssS'11912'
p736
(dp737
g3
F2.133199
sg4
F0.46185699999999996
sg5
F0.692786
sg6
I1912
sg7
F0.3
ssS'11915'
p738
(dp739
g3
F2.391402
sg4
F0.597851
sg5
F0.902676
sg6
I1915
sg7
F0.3
ssS'11914'
p740
(dp741
g3
F2.390749
sg4
F0.5847140000000001
sg5
F0.877072
sg6
I1914
sg7
F0.3
ssS'11917'
p742
(dp743
g3
F3.450084
sg4
F0.690017
sg5
F1.199477
sg6
I1917
sg7
F0.2
ssS'11916'
p744
(dp745
g3
F2.29622
sg4
F0.55599
sg5
F1.7161429999999998
sg6
I1916
sg7
F0.2
ssS'11919'
p746
(dp747
g3
F2.679488
sg4
F0.535898
sg5
F1.964958
sg6
I1919
sg7
F0.2
ssS'11918'
p748
(dp749
g3
F3.071841
sg4
F0.614368
sg5
F2.252683
sg6
I1918
sg7
F0.2
ssS'12932'
p750
(dp751
g3
F2.046536
sg4
F0.370508
sg5
F0.555762
sg6
I2932
sg7
F0.3
ssS'12933'
p752
(dp753
g3
F2.121385
sg4
F0.384058
sg5
F0.576088
sg6
I2933
sg7
F0.3
ssS'12930'
p754
(dp755
g3
F2.061208
sg4
F0.373164
sg5
F0.5597460000000001
sg6
I2930
sg7
F0.3
ssS'12931'
p756
(dp757
g3
F2.070243
sg4
F0.37479999999999997
sg5
F0.5622
sg6
I2931
sg7
F0.3
ssS'12936'
p758
(dp759
g3
F2.077398
sg4
F0.37609499999999996
sg5
F0.564142
sg6
I2936
sg7
F0.3
ssS'12937'
p760
(dp761
g3
F2.0541650000000002
sg4
F0.37188899999999997
sg5
F0.557833
sg6
I2937
sg7
F0.3
ssS'12934'
p762
(dp763
g3
F2.2261539999999997
sg4
F0.7344499999999999
sg5
F1.101674
sg6
I2934
sg7
F0.3
ssS'12935'
p764
(dp765
g3
F2.195028
sg4
F0.724181
sg5
F1.086271
sg6
I2935
sg7
F0.3
ssS'12938'
p766
(dp767
g3
F2.095834
sg4
F0.379433
sg5
F0.569149
sg6
I2938
sg7
F0.3
ssS'12939'
p768
(dp769
g3
F2.07154
sg4
F0.375035
sg5
F0.562552
sg6
I2939
sg7
F0.3
ssS'13113'
p770
(dp771
g3
F2.738053
sg4
F0.684513
sg5
F2.05354
sg6
I3113
sg7
F0.2
ssS'13112'
p772
(dp773
g3
F2.472009
sg4
F0.6180019999999999
sg5
F1.854007
sg6
I3112
sg7
F0.2
ssS'13111'
p774
(dp775
g3
F2.917695
sg4
F0.7294240000000001
sg5
F2.188272
sg6
I3111
sg7
F0.2
ssS'13110'
p776
(dp777
g3
F2.994415
sg4
F0.7486039999999999
sg5
F2.245811
sg6
I3110
sg7
F0.2
ssS'13117'
p778
(dp779
g3
F3.064001
sg4
F0.7659999999999999
sg5
F2.2980009999999997
sg6
I3117
sg7
F0.2
ssS'13116'
p780
(dp781
g3
F2.930867
sg4
F0.732717
sg5
F2.19815
sg6
I3116
sg7
F0.2
ssS'12594'
p782
(dp783
g3
F1.972885
sg4
F0.445712
sg5
F0.668569
sg6
I2594
sg7
F0.3
ssS'12595'
p784
(dp785
g3
F1.960735
sg4
F0.446274
sg5
F0.6694110000000001
sg6
I2595
sg7
F0.3
ssS'12596'
p786
(dp787
g3
F1.807804
sg4
F0.410953
sg5
F0.616429
sg6
I2596
sg7
F0.3
ssS'12597'
p788
(dp789
g3
F1.89391
sg4
F0.43723399999999996
sg5
F0.655851
sg6
I2597
sg7
F0.3
ssS'12590'
p790
(dp791
g3
F1.9593260000000001
sg4
F0.44658499999999995
sg5
F0.6698770000000001
sg6
I2590
sg7
F0.3
ssS'12591'
p792
(dp793
g3
F1.9765450000000002
sg4
F0.445591
sg5
F0.6683870000000001
sg6
I2591
sg7
F0.3
ssS'12592'
p794
(dp795
g3
F1.966362
sg4
F0.446224
sg5
F0.6693359999999999
sg6
I2592
sg7
F0.3
ssS'12593'
p796
(dp797
g3
F1.983202
sg4
F0.44504600000000005
sg5
F0.66757
sg6
I2593
sg7
F0.3
ssS'13114'
p798
(dp799
g3
F2.6758300000000004
sg4
F0.668957
sg5
F2.006872
sg6
I3114
sg7
F0.2
ssS'12598'
p800
(dp801
g3
F1.896396
sg4
F0.43499000000000004
sg5
F0.6524850000000001
sg6
I2598
sg7
F0.3
ssS'12599'
p802
(dp803
g3
F1.8988829999999999
sg4
F0.43473100000000003
sg5
F0.6520969999999999
sg6
I2599
sg7
F0.3
ssS'12848'
p804
(dp805
g3
F1.976695
sg4
F0.417254
sg5
F0.625882
sg6
I2848
sg7
F0.3
ssS'12849'
p806
(dp807
g3
F1.966888
sg4
F0.41761000000000004
sg5
F0.626415
sg6
I2849
sg7
F0.3
ssS'12842'
p808
(dp809
g3
F2.008666
sg4
F0.41640900000000003
sg5
F0.624614
sg6
I2842
sg7
F0.3
ssS'12843'
p810
(dp811
g3
F2.027769
sg4
F0.416111
sg5
F0.624167
sg6
I2843
sg7
F0.3
ssS'12840'
p812
(dp813
g3
F1.944088
sg4
F0.418425
sg5
F0.627638
sg6
I2840
sg7
F0.3
ssS'12841'
p814
(dp815
g3
F1.962118
sg4
F0.417801
sg5
F0.626701
sg6
I2841
sg7
F0.3
ssS'12846'
p816
(dp817
g3
F2.0257419999999997
sg4
F0.416086
sg5
F0.624129
sg6
I2846
sg7
F0.3
ssS'12847'
p818
(dp819
g3
F1.98654
sg4
F0.416933
sg5
F0.6254
sg6
I2847
sg7
F0.3
ssS'12844'
p820
(dp821
g3
F2.01762
sg4
F0.41633600000000004
sg5
F0.6245040000000001
sg6
I2844
sg7
F0.3
ssS'12845'
p822
(dp823
g3
F2.036769
sg4
F0.41605
sg5
F0.6240749999999999
sg6
I2845
sg7
F0.3
ssS'12446'
p824
(dp825
g3
F2.532049
sg4
F0.633012
sg5
F1.8990369999999999
sg6
I2446
sg7
F0.2
ssS'12447'
p826
(dp827
g3
F2.603551
sg4
F0.666669
sg5
F1.9579239999999998
sg6
I2447
sg7
F0.2
ssS'12444'
p828
(dp829
g3
F2.538008
sg4
F0.634502
sg5
F1.903506
sg6
I2444
sg7
F0.2
ssS'12445'
p830
(dp831
g3
F2.53285
sg4
F0.633213
sg5
F1.899638
sg6
I2445
sg7
F0.2
ssS'12442'
p832
(dp833
g3
F2.524422
sg4
F0.643373
sg5
F1.897406
sg6
I2442
sg7
F0.2
ssS'12443'
p834
(dp835
g3
F2.60616
sg4
F0.65154
sg5
F1.9546199999999998
sg6
I2443
sg7
F0.2
ssS'12440'
p836
(dp837
g3
F2.215161
sg4
F0.642038
sg5
F1.690787
sg6
I2440
sg7
F0.2
ssS'12441'
p838
(dp839
g3
F2.485876
sg4
F0.621469
sg5
F1.864407
sg6
I2441
sg7
F0.2
ssS'12448'
p840
(dp841
g3
F2.543892
sg4
F0.635973
sg5
F1.907919
sg6
I2448
sg7
F0.2
ssS'12449'
p842
(dp843
g3
F2.362323
sg4
F0.590581
sg5
F1.7717420000000002
sg6
I2449
sg7
F0.2
ssS'12051'
p844
(dp845
g3
F1.3989500000000001
sg4
F0.27979
sg5
F1.0258969999999998
sg6
I2051
sg7
F0.2
ssS'12050'
p846
(dp847
g3
F1.459567
sg4
F0.291913
sg5
F1.070349
sg6
I2050
sg7
F0.2
ssS'12053'
p848
(dp849
g3
F1.763644
sg4
F0.352729
sg5
F1.293339
sg6
I2053
sg7
F0.2
ssS'12052'
p850
(dp851
g3
F1.689419
sg4
F0.337884
sg5
F1.238907
sg6
I2052
sg7
F0.2
ssS'12055'
p852
(dp853
g3
F2.07
sg4
F0.42
sg5
F0.735
sg6
I2055
sg7
F0.4
ssS'12054'
p854
(dp855
g3
F1.565395
sg4
F0.354731
sg5
F1.16184
sg6
I2054
sg7
F0.2
ssS'12057'
p856
(dp857
g3
F2.283998
sg4
F0.457361
sg5
F0.686041
sg6
I2057
sg7
F0.3
ssS'12056'
p858
(dp859
g3
F2.2052549999999997
sg4
F0.475912
sg5
F0.713868
sg6
I2056
sg7
F0.3
ssS'12059'
p860
(dp861
g3
F2.380838
sg4
F0.433498
sg5
F0.6502469999999999
sg6
I2059
sg7
F0.3
ssS'12058'
p862
(dp863
g3
F2.2873140000000003
sg4
F0.42369500000000004
sg5
F0.635543
sg6
I2058
sg7
F0.3
ssS'12697'
p864
(dp865
g3
F1.8687790000000002
sg4
F0.42751399999999995
sg5
F0.64127
sg6
I2697
sg7
F0.3
ssS'12696'
p866
(dp867
g3
F1.824795
sg4
F0.420264
sg5
F0.6303949999999999
sg6
I2696
sg7
F0.3
ssS'12695'
p868
(dp869
g3
F1.967935
sg4
F0.433194
sg5
F0.649791
sg6
I2695
sg7
F0.3
ssS'12694'
p870
(dp871
g3
F2.3193070000000002
sg4
F0.503387
sg5
F0.75508
sg6
I2694
sg7
F0.3
ssS'12693'
p872
(dp873
g3
F2.313255
sg4
F0.503653
sg5
F0.75548
sg6
I2693
sg7
F0.3
ssS'12692'
p874
(dp875
g3
F2.272437
sg4
F0.505665
sg5
F0.758498
sg6
I2692
sg7
F0.3
ssS'12691'
p876
(dp877
g3
F2.26031
sg4
F0.5064150000000001
sg5
F0.7596229999999999
sg6
I2691
sg7
F0.3
ssS'12690'
p878
(dp879
g3
F2.3250290000000002
sg4
F0.46122599999999997
sg5
F0.69184
sg6
I2690
sg7
F0.3
ssS'12699'
p880
(dp881
g3
F1.964494
sg4
F0.484949
sg5
F0.727423
sg6
I2699
sg7
F0.3
ssS'12698'
p882
(dp883
g3
F1.793911
sg4
F0.43758400000000003
sg5
F0.656377
sg6
I2698
sg7
F0.3
ssS'12279'
p884
(dp885
g3
F2.084082
sg4
F0.470588
sg5
F0.705882
sg6
I2279
sg7
F0.3
ssS'12278'
p886
(dp887
g3
F1.957832
sg4
F0.472472
sg5
F0.708709
sg6
I2278
sg7
F0.3
ssS'12271'
p888
(dp889
g3
F2.064574
sg4
F0.516144
sg5
F0.782512
sg6
I2271
sg7
F0.3
ssS'12270'
p890
(dp891
g3
F2.103143
sg4
F0.40397
sg5
F0.605954
sg6
I2270
sg7
F0.3
ssS'12273'
p892
(dp893
g3
F1.9927260000000002
sg4
F0.421561
sg5
F0.6323409999999999
sg6
I2273
sg7
F0.3
ssS'12272'
p894
(dp895
g3
F2.014262
sg4
F0.494353
sg5
F0.741529
sg6
I2272
sg7
F0.3
ssS'12275'
p896
(dp897
g3
F1.511789
sg4
F0.48613300000000004
sg5
F1.1699039999999998
sg6
I2275
sg7
F0.2
ssS'12274'
p898
(dp899
g3
F1.511789
sg4
F0.48613300000000004
sg5
F1.1699039999999998
sg6
I2274
sg7
F0.2
ssS'12277'
p900
(dp901
g3
F1.978836
sg4
F0.471686
sg5
F0.707529
sg6
I2277
sg7
F0.3
ssS'12276'
p902
(dp903
g3
F3.0643759999999998
sg4
F0.498214
sg5
F0.747321
sg6
I2276
sg7
F0.3
ssS'11838'
p904
(dp905
g3
F2.361005
sg4
F0.590251
sg5
F0.982008
sg6
I1838
sg7
F0.3
ssS'11839'
p906
(dp907
g3
F2.283802
sg4
F0.570951
sg5
F0.883258
sg6
I1839
sg7
F0.3
ssS'11836'
p908
(dp909
g3
F2.356336
sg4
F0.589084
sg5
F0.972241
sg6
I1836
sg7
F0.3
ssS'11837'
p910
(dp911
g3
F2.350937
sg4
F0.587734
sg5
F0.9967149999999999
sg6
I1837
sg7
F0.3
ssS'11834'
p912
(dp913
g3
F2.4285669999999997
sg4
F0.594508
sg5
F0.891763
sg6
I1834
sg7
F0.3
ssS'11835'
p914
(dp915
g3
F2.386481
sg4
F0.59662
sg5
F0.929006
sg6
I1835
sg7
F0.3
ssS'11832'
p916
(dp917
g3
F2.4155770000000003
sg4
F0.544985
sg5
F0.8174769999999999
sg6
I1832
sg7
F0.3
ssS'11833'
p918
(dp919
g3
F2.394989
sg4
F0.5987469999999999
sg5
F0.928019
sg6
I1833
sg7
F0.3
ssS'11830'
p920
(dp921
g3
F2.484242
sg4
F0.621061
sg5
F1.100667
sg6
I1830
sg7
F0.3
ssS'11831'
p922
(dp923
g3
F2.3824199999999998
sg4
F0.5956049999999999
sg5
F0.950253
sg6
I1831
sg7
F0.3
ssS'13098'
p924
(dp925
g3
F3.181377
sg4
F0.795344
sg5
F2.386033
sg6
I3098
sg7
F0.2
ssS'13099'
p926
(dp927
g3
F3.144654
sg4
F0.786164
sg5
F2.358491
sg6
I3099
sg7
F0.2
ssS'13096'
p928
(dp929
g3
F3.000772
sg4
F0.754446
sg5
F2.251996
sg6
I3096
sg7
F0.2
ssS'13097'
p930
(dp931
g3
F3.046023
sg4
F0.7620229999999999
sg5
F2.28469
sg6
I3097
sg7
F0.2
ssS'13094'
p932
(dp933
g3
F3.151983
sg4
F0.787996
sg5
F2.363987
sg6
I3094
sg7
F0.2
ssS'13095'
p934
(dp935
g3
F2.9668229999999998
sg4
F0.751247
sg5
F2.228298
sg6
I3095
sg7
F0.2
ssS'13092'
p936
(dp937
g3
F1.263449
sg4
F0.308009
sg5
F0.462013
sg6
I3092
sg7
F0.3
ssS'13093'
p938
(dp939
g3
F1.263449
sg4
F0.308009
sg5
F0.462013
sg6
I3093
sg7
F0.3
ssS'13090'
p940
(dp941
g3
F1.263449
sg4
F0.308009
sg5
F0.462013
sg6
I3090
sg7
F0.3
ssS'13091'
p942
(dp943
g3
F1.263449
sg4
F0.308009
sg5
F0.462013
sg6
I3091
sg7
F0.3
ssS'11902'
p944
(dp945
g3
F2.43318
sg4
F0.535313
sg5
F0.8029689999999999
sg6
I1902
sg7
F0.3
ssS'11903'
p946
(dp947
g3
F2.4463120000000003
sg4
F0.523139
sg5
F0.784708
sg6
I1903
sg7
F0.3
ssS'11900'
p948
(dp949
g3
F2.439855
sg4
F0.524287
sg5
F0.786431
sg6
I1900
sg7
F0.3
ssS'11901'
p950
(dp951
g3
F2.436533
sg4
F0.537376
sg5
F0.8060639999999999
sg6
I1901
sg7
F0.3
ssS'11906'
p952
(dp953
g3
F2.444639
sg4
F0.5427649999999999
sg5
F0.814148
sg6
I1906
sg7
F0.3
ssS'11907'
p954
(dp955
g3
F1.798993
sg4
F0.377648
sg5
F0.566472
sg6
I1907
sg7
F0.3
ssS'11904'
p956
(dp957
g3
F2.4418860000000002
sg4
F0.536377
sg5
F0.8045650000000001
sg6
I1904
sg7
F0.3
ssS'11905'
p958
(dp959
g3
F2.430334
sg4
F0.542992
sg5
F0.8144889999999999
sg6
I1905
sg7
F0.3
ssS'11908'
p960
(dp961
g3
F1.7895580000000002
sg4
F0.378738
sg5
F0.5681069999999999
sg6
I1908
sg7
F0.3
ssS'11909'
p962
(dp963
g3
F2.4582040000000003
sg4
F0.558118
sg5
F0.837178
sg6
I1909
sg7
F0.3
ssS'12309'
p964
(dp965
g3
F2.412502
sg4
F0.603125
sg5
F1.809376
sg6
I2309
sg7
F0.2
ssS'12308'
p966
(dp967
g3
F2.459821
sg4
F0.614955
sg5
F1.8448660000000001
sg6
I2308
sg7
F0.2
ssS'12909'
p968
(dp969
g3
F1.880685
sg4
F0.620473
sg5
F0.9307089999999999
sg6
I2909
sg7
F0.3
ssS'12908'
p970
(dp971
g3
F1.880685
sg4
F0.620473
sg5
F0.9307089999999999
sg6
I2908
sg7
F0.3
ssS'12907'
p972
(dp973
g3
F1.880685
sg4
F0.620473
sg5
F0.9307089999999999
sg6
I2907
sg7
F0.3
ssS'12906'
p974
(dp975
g3
F1.880685
sg4
F0.620473
sg5
F0.9307089999999999
sg6
I2906
sg7
F0.3
ssS'12905'
p976
(dp977
g3
F1.933321
sg4
F0.637838
sg5
F0.956758
sg6
I2905
sg7
F0.3
ssS'12904'
p978
(dp979
g3
F1.933321
sg4
F0.637838
sg5
F0.956758
sg6
I2904
sg7
F0.3
ssS'12903'
p980
(dp981
g3
F1.933321
sg4
F0.637838
sg5
F0.956758
sg6
I2903
sg7
F0.3
ssS'12902'
p982
(dp983
g3
F1.933321
sg4
F0.637838
sg5
F0.956758
sg6
I2902
sg7
F0.3
ssS'12901'
p984
(dp985
g3
F1.933321
sg4
F0.637838
sg5
F0.956758
sg6
I2901
sg7
F0.3
ssS'12900'
p986
(dp987
g3
F1.988988
sg4
F0.656204
sg5
F0.984306
sg6
I2900
sg7
F0.3
ssS'12877'
p988
(dp989
g3
F1.923433
sg4
F0.436272
sg5
F0.654408
sg6
I2877
sg7
F0.3
ssS'12876'
p990
(dp991
g3
F1.9119329999999999
sg4
F0.331383
sg5
F0.49707500000000004
sg6
I2876
sg7
F0.3
ssS'12875'
p992
(dp993
g3
F2.0657259999999997
sg4
F0.358039
sg5
F0.537058
sg6
I2875
sg7
F0.3
ssS'12874'
p994
(dp995
g3
F2.157807
sg4
F0.373999
sg5
F0.560998
sg6
I2874
sg7
F0.3
ssS'12873'
p996
(dp997
g3
F2.2584809999999997
sg4
F0.39144799999999996
sg5
F0.587172
sg6
I2873
sg7
F0.3
ssS'12872'
p998
(dp999
g3
F2.369009
sg4
F0.410605
sg5
F0.615907
sg6
I2872
sg7
F0.3
ssS'12871'
p1000
(dp1001
g3
F2.490912
sg4
F0.431734
sg5
F0.6476000000000001
sg6
I2871
sg7
F0.3
ssS'12870'
p1002
(dp1003
g3
F2.562985
sg4
F0.44616700000000004
sg5
F0.669251
sg6
I2870
sg7
F0.3
ssS'12879'
p1004
(dp1005
g3
F2.023014
sg4
F0.42318300000000003
sg5
F0.6347740000000001
sg6
I2879
sg7
F0.3
ssS'12878'
p1006
(dp1007
g3
F1.823613
sg4
F0.413631
sg5
F0.620447
sg6
I2878
sg7
F0.3
ssS'12473'
p1008
(dp1009
g3
F2.421087
sg4
F0.616053
sg5
F1.819409
sg6
I2473
sg7
F0.2
ssS'12472'
p1010
(dp1011
g3
F2.421087
sg4
F0.616053
sg5
F1.819409
sg6
I2472
sg7
F0.2
ssS'12471'
p1012
(dp1013
g3
F2.398039
sg4
F0.6132
sg5
F1.803093
sg6
I2471
sg7
F0.2
ssS'12470'
p1014
(dp1015
g3
F2.398039
sg4
F0.6132
sg5
F1.803093
sg6
I2470
sg7
F0.2
ssS'12477'
p1016
(dp1017
g3
F2.2216329999999997
sg4
F0.555408
sg5
F1.666225
sg6
I2477
sg7
F0.2
ssS'12476'
p1018
(dp1019
g3
F2.44678
sg4
F0.619433
sg5
F1.837664
sg6
I2476
sg7
F0.2
ssS'12475'
p1020
(dp1021
g3
F2.44678
sg4
F0.619433
sg5
F1.837664
sg6
I2475
sg7
F0.2
ssS'12474'
p1022
(dp1023
g3
F2.44678
sg4
F0.619433
sg5
F1.837664
sg6
I2474
sg7
F0.2
ssS'12479'
p1024
(dp1025
g3
F2.252432
sg4
F0.563108
sg5
F1.689324
sg6
I2479
sg7
F0.2
ssS'12478'
p1026
(dp1027
g3
F2.2215350000000003
sg4
F0.555384
sg5
F1.6661510000000002
sg6
I2478
sg7
F0.2
ssS'12042'
p1028
(dp1029
g3
F2.174871
sg4
F0.529988
sg5
F0.794982
sg6
I2042
sg7
F0.3
ssS'12043'
p1030
(dp1031
g3
F1.4030619999999998
sg4
F0.280612
sg5
F1.028912
sg6
I2043
sg7
F0.2
ssS'12040'
p1032
(dp1033
g3
F2.189936
sg4
F0.522154
sg5
F0.783231
sg6
I2040
sg7
F0.3
ssS'12041'
p1034
(dp1035
g3
F2.189425
sg4
F0.534242
sg5
F0.801363
sg6
I2041
sg7
F0.3
ssS'12046'
p1036
(dp1037
g3
F1.380489
sg4
F0.319912
sg5
F1.0269629999999998
sg6
I2046
sg7
F0.2
ssS'12047'
p1038
(dp1039
g3
F1.463657
sg4
F0.292731
sg5
F1.073349
sg6
I2047
sg7
F0.2
ssS'12044'
p1040
(dp1041
g3
F1.4248070000000002
sg4
F0.288961
sg5
F1.046192
sg6
I2044
sg7
F0.2
ssS'12045'
p1042
(dp1043
g3
F2.347254
sg4
F0.556652
sg5
F0.834978
sg6
I2045
sg7
F0.3
ssS'12048'
p1044
(dp1045
g3
F1.421263
sg4
F0.284253
sg5
F1.04226
sg6
I2048
sg7
F0.2
ssS'12049'
p1046
(dp1047
g3
F1.087245
sg4
F0.257505
sg5
F0.8106650000000001
sg6
I2049
sg7
F0.2
ssS'12680'
p1048
(dp1049
g3
F2.282715
sg4
F0.505345
sg5
F0.758018
sg6
I2680
sg7
F0.3
ssS'12681'
p1050
(dp1051
g3
F2.058716
sg4
F0.46352200000000005
sg5
F0.695283
sg6
I2681
sg7
F0.3
ssS'11799'
p1052
(dp1053
g3
F2.331132
sg4
F0.582783
sg5
F1.608258
sg6
I1799
sg7
F0.3
ssS'12683'
p1054
(dp1055
g3
F2.420594
sg4
F0.502136
sg5
F0.7532030000000001
sg6
I2683
sg7
F0.3
ssS'12684'
p1056
(dp1057
g3
F2.221698
sg4
F0.460602
sg5
F0.690903
sg6
I2684
sg7
F0.3
ssS'12685'
p1058
(dp1059
g3
F2.237192
sg4
F0.460391
sg5
F0.690586
sg6
I2685
sg7
F0.3
ssS'12686'
p1060
(dp1061
g3
F2.224245
sg4
F0.460525
sg5
F0.6907869999999999
sg6
I2686
sg7
F0.3
ssS'12687'
p1062
(dp1063
g3
F2.27167
sg4
F0.460559
sg5
F0.690839
sg6
I2687
sg7
F0.3
ssS'11793'
p1064
(dp1065
g3
F2.297893
sg4
F0.574473
sg5
F1.7234200000000002
sg6
I1793
sg7
F0.2
ssS'12689'
p1066
(dp1067
g3
F2.306402
sg4
F0.460814
sg5
F0.6912210000000001
sg6
I2689
sg7
F0.3
ssS'11791'
p1068
(dp1069
g3
F2.332409
sg4
F0.583102
sg5
F1.749307
sg6
I1791
sg7
F0.2
ssS'11790'
p1070
(dp1071
g3
F2.573902
sg4
F0.643475
sg5
F1.713433
sg6
I1790
sg7
F0.3
ssS'11797'
p1072
(dp1073
g3
F2.33975
sg4
F0.5849369999999999
sg5
F1.6704599999999998
sg6
I1797
sg7
F0.3
ssS'11796'
p1074
(dp1075
g3
F2.3944929999999998
sg4
F0.598623
sg5
F1.7958699999999999
sg6
I1796
sg7
F0.2
ssS'11795'
p1076
(dp1077
g3
F2.408991
sg4
F0.602248
sg5
F1.806743
sg6
I1795
sg7
F0.2
ssS'11794'
p1078
(dp1079
g3
F2.298608
sg4
F0.574652
sg5
F1.723956
sg6
I1794
sg7
F0.2
ssS'12027'
p1080
(dp1081
g3
F2.284806
sg4
F0.502029
sg5
F0.753044
sg6
I2027
sg7
F0.3
ssS'11939'
p1082
(dp1083
g3
F1.481896
sg4
F0.296399
sg5
F0.444598
sg6
I1939
sg7
F0.3
ssS'11938'
p1084
(dp1085
g3
F1.493429
sg4
F0.301957
sg5
F0.45293500000000003
sg6
I1938
sg7
F0.3
ssS'12268'
p1086
(dp1087
g3
F2.110564
sg4
F0.4597
sg5
F0.689549
sg6
I2268
sg7
F0.3
ssS'12269'
p1088
(dp1089
g3
F2.111698
sg4
F0.40555599999999997
sg5
F0.608335
sg6
I2269
sg7
F0.3
ssS'11931'
p1090
(dp1091
g3
F1.481593
sg4
F0.312782
sg5
F0.46917200000000003
sg6
I1931
sg7
F0.3
ssS'12262'
p1092
(dp1093
g3
F2.028438
sg4
F0.50711
sg5
F0.7637149999999999
sg6
I2262
sg7
F0.3
ssS'12263'
p1094
(dp1095
g3
F1.9296369999999998
sg4
F0.48240900000000003
sg5
F0.763265
sg6
I2263
sg7
F0.3
ssS'12260'
p1096
(dp1097
g3
F2.022076
sg4
F0.505519
sg5
F0.767162
sg6
I2260
sg7
F0.3
ssS'12261'
p1098
(dp1099
g3
F2.021924
sg4
F0.505481
sg5
F0.765856
sg6
I2261
sg7
F0.3
ssS'12266'
p1100
(dp1101
g3
F2.109988
sg4
F0.459328
sg5
F0.6889919999999999
sg6
I2266
sg7
F0.3
ssS'12267'
p1102
(dp1103
g3
F2.109123
sg4
F0.460186
sg5
F0.69028
sg6
I2267
sg7
F0.3
ssS'12264'
p1104
(dp1105
g3
F2.205947
sg4
F0.509348
sg5
F0.764022
sg6
I2264
sg7
F0.3
ssS'12265'
p1106
(dp1107
g3
F2.225918
sg4
F0.511
sg5
F0.7665000000000001
sg6
I2265
sg7
F0.3
ssS'11809'
p1108
(dp1109
g3
F2.797594
sg4
F0.6993980000000001
sg5
F2.098195
sg6
I1809
sg7
F0.2
ssS'11808'
p1110
(dp1111
g3
F2.697969
sg4
F0.6744920000000001
sg5
F2.023477
sg6
I1808
sg7
F0.2
ssS'11803'
p1112
(dp1113
g3
F2.3724760000000003
sg4
F0.5931190000000001
sg5
F1.779357
sg6
I1803
sg7
F0.2
ssS'11802'
p1114
(dp1115
g3
F2.396731
sg4
F0.599183
sg5
F1.797548
sg6
I1802
sg7
F0.2
ssS'11801'
p1116
(dp1117
g3
F2.416386
sg4
F0.604097
sg5
F1.8122900000000002
sg6
I1801
sg7
F0.2
ssS'11800'
p1118
(dp1119
g3
F2.322497
sg4
F0.5806239999999999
sg5
F1.741873
sg6
I1800
sg7
F0.2
ssS'11807'
p1120
(dp1121
g3
F2.514522
sg4
F0.62863
sg5
F1.885891
sg6
I1807
sg7
F0.2
ssS'11806'
p1122
(dp1123
g3
F2.409829
sg4
F0.602457
sg5
F1.807372
sg6
I1806
sg7
F0.2
ssS'11805'
p1124
(dp1125
g3
F2.460425
sg4
F0.6151059999999999
sg5
F1.8453190000000002
sg6
I1805
sg7
F0.2
ssS'11804'
p1126
(dp1127
g3
F2.359954
sg4
F0.589989
sg5
F1.769966
sg6
I1804
sg7
F0.2
ssS'12316'
p1128
(dp1129
g3
F2.6596550000000003
sg4
F0.664914
sg5
F1.994742
sg6
I2316
sg7
F0.2
ssS'12317'
p1130
(dp1131
g3
F2.641569
sg4
F0.660392
sg5
F1.9811770000000002
sg6
I2317
sg7
F0.2
ssS'12314'
p1132
(dp1133
g3
F2.573492
sg4
F0.6987829999999999
sg5
F1.9485890000000001
sg6
I2314
sg7
F0.2
ssS'12315'
p1134
(dp1135
g3
F2.603529
sg4
F0.650882
sg5
F1.952647
sg6
I2315
sg7
F0.2
ssS'12312'
p1136
(dp1137
g3
F2.558564
sg4
F0.694207
sg5
F1.937112
sg6
I2312
sg7
F0.2
ssS'12313'
p1138
(dp1139
g3
F2.593057
sg4
F0.70196
sg5
F1.9626910000000002
sg6
I2313
sg7
F0.2
ssS'12310'
p1140
(dp1141
g3
F2.3868840000000002
sg4
F0.5967210000000001
sg5
F1.790163
sg6
I2310
sg7
F0.2
ssS'12311'
p1142
(dp1143
g3
F2.649445
sg4
F0.662361
sg5
F1.987084
sg6
I2311
sg7
F0.2
ssS'11937'
p1144
(dp1145
g3
F1.482856
sg4
F0.301965
sg5
F0.452947
sg6
I1937
sg7
F0.3
ssS'11936'
p1146
(dp1147
g3
F1.502898
sg4
F0.310085
sg5
F0.465127
sg6
I1936
sg7
F0.3
ssS'11935'
p1148
(dp1149
g3
F1.529598
sg4
F0.316933
sg5
F0.475399
sg6
I1935
sg7
F0.3
ssS'11934'
p1150
(dp1151
g3
F1.548073
sg4
F0.321874
sg5
F0.48281100000000005
sg6
I1934
sg7
F0.3
ssS'11933'
p1152
(dp1153
g3
F1.557293
sg4
F0.32737299999999997
sg5
F0.49105899999999997
sg6
I1933
sg7
F0.3
ssS'11932'
p1154
(dp1155
g3
F1.530529
sg4
F0.316661
sg5
F0.474991
sg6
I1932
sg7
F0.3
ssS'12318'
p1156
(dp1157
g3
F2.686735
sg4
F0.6716840000000001
sg5
F2.015052
sg6
I2318
sg7
F0.2
ssS'12319'
p1158
(dp1159
g3
F2.7766219999999997
sg4
F0.694155
sg5
F2.082466
sg6
I2319
sg7
F0.2
ssS'12918'
p1160
(dp1161
g3
F2.110527
sg4
F0.696302
sg5
F1.044453
sg6
I2918
sg7
F0.3
ssS'12919'
p1162
(dp1163
g3
F2.051615
sg4
F0.37142699999999995
sg5
F0.557141
sg6
I2919
sg7
F0.3
ssS'12910'
p1164
(dp1165
g3
F1.880685
sg4
F0.620473
sg5
F0.9307089999999999
sg6
I2910
sg7
F0.3
ssS'12911'
p1166
(dp1167
g3
F1.880685
sg4
F0.620473
sg5
F0.9307089999999999
sg6
I2911
sg7
F0.3
ssS'12912'
p1168
(dp1169
g3
F1.9376589999999998
sg4
F0.63927
sg5
F0.958905
sg6
I2912
sg7
F0.3
ssS'12913'
p1170
(dp1171
g3
F2.047956
sg4
F0.675659
sg5
F1.013488
sg6
I2913
sg7
F0.3
ssS'12914'
p1172
(dp1173
g3
F2.110527
sg4
F0.696302
sg5
F1.044453
sg6
I2914
sg7
F0.3
ssS'12915'
p1174
(dp1175
g3
F2.047956
sg4
F0.675659
sg5
F1.013488
sg6
I2915
sg7
F0.3
ssS'12916'
p1176
(dp1177
g3
F2.047956
sg4
F0.675659
sg5
F1.013488
sg6
I2916
sg7
F0.3
ssS'12917'
p1178
(dp1179
g3
F2.047956
sg4
F0.675659
sg5
F1.013488
sg6
I2917
sg7
F0.3
ssS'13135'
p1180
(dp1181
g3
F2.757957
sg4
F0.6894889999999999
sg5
F2.068468
sg6
I3135
sg7
F0.2
ssS'13134'
p1182
(dp1183
g3
F3.14755
sg4
F0.786887
sg5
F2.360662
sg6
I3134
sg7
F0.2
ssS'13137'
p1184
(dp1185
g3
F4.335772
sg4
F1.083943
sg5
F3.2518290000000003
sg6
I3137
sg7
F0.2
ssS'13136'
p1186
(dp1187
g3
F2.849148
sg4
F0.712287
sg5
F2.136861
sg6
I3136
sg7
F0.2
ssS'13131'
p1188
(dp1189
g3
F3.2003280000000003
sg4
F0.8000820000000001
sg5
F2.400246
sg6
I3131
sg7
F0.2
ssS'13130'
p1190
(dp1191
g3
F3.657845
sg4
F0.928597
sg5
F2.748095
sg6
I3130
sg7
F0.2
ssS'13133'
p1192
(dp1193
g3
F3.158328
sg4
F0.789582
sg5
F2.368746
sg6
I3133
sg7
F0.2
ssS'13132'
p1194
(dp1195
g3
F3.207156
sg4
F0.801789
sg5
F2.405367
sg6
I3132
sg7
F0.2
ssS'13139'
p1196
(dp1197
g3
F3.658032
sg4
F0.914508
sg5
F2.743524
sg6
I3139
sg7
F0.2
ssS'13138'
p1198
(dp1199
g3
F3.327538
sg4
F0.8318850000000001
sg5
F2.495654
sg6
I3138
sg7
F0.2
ssS'12860'
p1200
(dp1201
g3
F3.591461
sg4
F0.718292
sg5
F1.91539
sg6
I2860
sg7
F0.2
ssS'12861'
p1202
(dp1203
g3
F4.206411
sg4
F0.8470059999999999
sg5
F1.77187
sg6
I2861
sg7
F0.2
ssS'12862'
p1204
(dp1205
g3
F3.9920940000000003
sg4
F0.9330370000000001
sg5
F1.497035
sg6
I2862
sg7
F0.2
ssS'12863'
p1206
(dp1207
g3
F4.226331
sg4
F0.9470050000000001
sg5
F1.5848740000000001
sg6
I2863
sg7
F0.2
ssS'12864'
p1208
(dp1209
g3
F4.048278
sg4
F0.8480989999999999
sg5
F1.518104
sg6
I2864
sg7
F0.2
ssS'12865'
p1210
(dp1211
g3
F4.1864159999999995
sg4
F0.861849
sg5
F1.569906
sg6
I2865
sg7
F0.2
ssS'12866'
p1212
(dp1213
g3
F4.2613639999999995
sg4
F0.852273
sg5
F1.761971
sg6
I2866
sg7
F0.2
ssS'12867'
p1214
(dp1215
g3
F3.9966239999999997
sg4
F1.3875659999999999
sg5
F2.081349
sg6
I2867
sg7
F0.3
ssS'12868'
p1216
(dp1217
g3
F2.9031409999999997
sg4
F0.595009
sg5
F0.892513
sg6
I2868
sg7
F0.3
ssS'12869'
p1218
(dp1219
g3
F2.7062830000000004
sg4
F0.471113
sg5
F0.706669
sg6
I2869
sg7
F0.3
ssS'12468'
p1220
(dp1221
g3
F2.398039
sg4
F0.6132
sg5
F1.803093
sg6
I2468
sg7
F0.2
ssS'12469'
p1222
(dp1223
g3
F2.398039
sg4
F0.6132
sg5
F1.803093
sg6
I2469
sg7
F0.2
ssS'12464'
p1224
(dp1225
g3
F2.390456
sg4
F0.61231
sg5
F1.797741
sg6
I2464
sg7
F0.2
ssS'12465'
p1226
(dp1227
g3
F2.3852010000000003
sg4
F0.611711
sg5
F1.7940379999999998
sg6
I2465
sg7
F0.2
ssS'12466'
p1228
(dp1229
g3
F2.417224
sg4
F0.615561
sg5
F1.81667
sg6
I2466
sg7
F0.2
ssS'12467'
p1230
(dp1231
g3
F2.421087
sg4
F0.616053
sg5
F1.819409
sg6
I2467
sg7
F0.2
ssS'12460'
p1232
(dp1233
g3
F2.072725
sg4
F0.593065
sg5
F1.5795050000000002
sg6
I2460
sg7
F0.2
ssS'12461'
p1234
(dp1235
g3
F2.146073
sg4
F0.5873940000000001
sg5
F1.626514
sg6
I2461
sg7
F0.2
ssS'12462'
p1236
(dp1237
g3
F2.345491
sg4
F0.607379
sg5
F1.766121
sg6
I2462
sg7
F0.2
ssS'12463'
p1238
(dp1239
g3
F2.36938
sg4
F0.609881
sg5
F1.78288
sg6
I2463
sg7
F0.2
ssS'12113'
p1240
(dp1241
g3
F3.141227
sg4
F0.5428999999999999
sg5
F0.81435
sg6
I2113
sg7
F0.3
ssS'12119'
p1242
(dp1243
g3
F2.235
sg4
F0.465
sg5
F0.7125
sg6
I2119
sg7
F0.4
ssS'11784'
p1244
(dp1245
g3
F2.338702
sg4
F0.584676
sg5
F1.754027
sg6
I1784
sg7
F0.2
ssS'11785'
p1246
(dp1247
g3
F2.526674
sg4
F0.631668
sg5
F1.8950049999999998
sg6
I1785
sg7
F0.2
ssS'11786'
p1248
(dp1249
g3
F2.5867739999999997
sg4
F0.6466930000000001
sg5
F1.9123599999999998
sg6
I1786
sg7
F0.3
ssS'11787'
p1250
(dp1251
g3
F2.3417250000000003
sg4
F0.585431
sg5
F1.756293
sg6
I1787
sg7
F0.2
ssS'11780'
p1252
(dp1253
g3
F2.3641579999999998
sg4
F0.591039
sg5
F1.773118
sg6
I1780
sg7
F0.2
ssS'11781'
p1254
(dp1255
g3
F2.5151920000000003
sg4
F0.6287980000000001
sg5
F1.886394
sg6
I1781
sg7
F0.2
ssS'12079'
p1256
(dp1257
g3
F2.769735
sg4
F0.610859
sg5
F0.916288
sg6
I2079
sg7
F0.3
ssS'12078'
p1258
(dp1259
g3
F2.701491
sg4
F0.58466
sg5
F0.8769899999999999
sg6
I2078
sg7
F0.3
ssS'12077'
p1260
(dp1261
g3
F2.7750049999999997
sg4
F0.572219
sg5
F0.8583289999999999
sg6
I2077
sg7
F0.3
ssS'12076'
p1262
(dp1263
g3
F2.770177
sg4
F0.581253
sg5
F0.871879
sg6
I2076
sg7
F0.3
ssS'12075'
p1264
(dp1265
g3
F2.776595
sg4
F0.575216
sg5
F0.8628239999999999
sg6
I2075
sg7
F0.3
ssS'12074'
p1266
(dp1267
g3
F2.578679
sg4
F0.5373060000000001
sg5
F0.80596
sg6
I2074
sg7
F0.3
ssS'12073'
p1268
(dp1269
g3
F2.017592
sg4
F0.375933
sg5
F0.5638989999999999
sg6
I2073
sg7
F0.3
ssS'12072'
p1270
(dp1271
g3
F1.845246
sg4
F0.338324
sg5
F0.507485
sg6
I2072
sg7
F0.3
ssS'12071'
p1272
(dp1273
g3
F2.105175
sg4
F0.38377
sg5
F0.575655
sg6
I2071
sg7
F0.3
ssS'12070'
p1274
(dp1275
g3
F2.169906
sg4
F0.39880499999999997
sg5
F0.598207
sg6
I2070
sg7
F0.3
ssS'12679'
p1276
(dp1277
g3
F1.7336770000000001
sg4
F0.433881
sg5
F0.650822
sg6
I2679
sg7
F0.3
ssS'12678'
p1278
(dp1279
g3
F1.867916
sg4
F0.466584
sg5
F0.699876
sg6
I2678
sg7
F0.3
ssS'12675'
p1280
(dp1281
g3
F1.635186
sg4
F0.411496
sg5
F0.617244
sg6
I2675
sg7
F0.3
ssS'12674'
p1282
(dp1283
g3
F1.769196
sg4
F0.5021869999999999
sg5
F0.7532800000000001
sg6
I2674
sg7
F0.3
ssS'12677'
p1284
(dp1285
g3
F1.849547
sg4
F0.46793
sg5
F0.701894
sg6
I2677
sg7
F0.3
ssS'12676'
p1286
(dp1287
g3
F1.854136
sg4
F0.467631
sg5
F0.701446
sg6
I2676
sg7
F0.3
ssS'12671'
p1288
(dp1289
g3
F1.819582
sg4
F0.5004890000000001
sg5
F0.750733
sg6
I2671
sg7
F0.3
ssS'12670'
p1290
(dp1291
g3
F1.8166
sg4
F0.505621
sg5
F0.758432
sg6
I2670
sg7
F0.3
ssS'12673'
p1292
(dp1293
g3
F1.7955590000000001
sg4
F0.498997
sg5
F0.7484959999999999
sg6
I2673
sg7
F0.3
ssS'12672'
p1294
(dp1295
g3
F1.80014
sg4
F0.498404
sg5
F0.747606
sg6
I2672
sg7
F0.3
ssS'12789'
p1296
(dp1297
g3
F1.790366
sg4
F0.418769
sg5
F0.628154
sg6
I2789
sg7
F0.3
ssS'12788'
p1298
(dp1299
g3
F1.771359
sg4
F0.412387
sg5
F0.618581
sg6
I2788
sg7
F0.3
ssS'12781'
p1300
(dp1301
g3
F1.84384
sg4
F0.418723
sg5
F0.628084
sg6
I2781
sg7
F0.3
ssS'12780'
p1302
(dp1303
g3
F1.99279
sg4
F0.44828
sg5
F0.67242
sg6
I2780
sg7
F0.3
ssS'12783'
p1304
(dp1305
g3
F1.8369479999999998
sg4
F0.41781599999999997
sg5
F0.6267240000000001
sg6
I2783
sg7
F0.3
ssS'12782'
p1306
(dp1307
g3
F1.972313
sg4
F0.452687
sg5
F0.67903
sg6
I2782
sg7
F0.3
ssS'12785'
p1308
(dp1309
g3
F1.785868
sg4
F0.411486
sg5
F0.61723
sg6
I2785
sg7
F0.3
ssS'12784'
p1310
(dp1311
g3
F1.790708
sg4
F0.41119700000000003
sg5
F0.616795
sg6
I2784
sg7
F0.3
ssS'12787'
p1312
(dp1313
g3
F1.752019
sg4
F0.413806
sg5
F0.6207090000000001
sg6
I2787
sg7
F0.3
ssS'12786'
p1314
(dp1315
g3
F1.756676
sg4
F0.413438
sg5
F0.6201570000000001
sg6
I2786
sg7
F0.3
ssS'12257'
p1316
(dp1317
g3
F1.941605
sg4
F0.485401
sg5
F0.7816150000000001
sg6
I2257
sg7
F0.3
ssS'12256'
p1318
(dp1319
g3
F1.9184780000000001
sg4
F0.479619
sg5
F0.769406
sg6
I2256
sg7
F0.3
ssS'12255'
p1320
(dp1321
g3
F2.128399
sg4
F0.469846
sg5
F0.70477
sg6
I2255
sg7
F0.3
ssS'12254'
p1322
(dp1323
g3
F2.107408
sg4
F0.45850799999999997
sg5
F0.687761
sg6
I2254
sg7
F0.3
ssS'12253'
p1324
(dp1325
g3
F1.9122139999999999
sg4
F0.458632
sg5
F0.687948
sg6
I2253
sg7
F0.3
ssS'12252'
p1326
(dp1327
g3
F2.119195
sg4
F0.45908099999999996
sg5
F0.6886220000000001
sg6
I2252
sg7
F0.3
ssS'12251'
p1328
(dp1329
g3
F2.069055
sg4
F0.457694
sg5
F0.686542
sg6
I2251
sg7
F0.3
ssS'12250'
p1330
(dp1331
g3
F2.090947
sg4
F0.458297
sg5
F0.687445
sg6
I2250
sg7
F0.3
ssS'12259'
p1332
(dp1333
g3
F2.1308510000000003
sg4
F0.51211
sg5
F0.7681650000000001
sg6
I2259
sg7
F0.3
ssS'12258'
p1334
(dp1335
g3
F1.9678909999999998
sg4
F0.491973
sg5
F0.7983969999999999
sg6
I2258
sg7
F0.3
ssS'12095'
p1336
(dp1337
g3
F3.5299759999999996
sg4
F0.611194
sg5
F0.916791
sg6
I2095
sg7
F0.3
ssS'12094'
p1338
(dp1339
g3
F3.809765
sg4
F0.662937
sg5
F0.994405
sg6
I2094
sg7
F0.3
ssS'12097'
p1340
(dp1341
g3
F3.343006
sg4
F0.577681
sg5
F0.8665219999999999
sg6
I2097
sg7
F0.3
ssS'12096'
p1342
(dp1343
g3
F3.274014
sg4
F0.565938
sg5
F0.848907
sg6
I2096
sg7
F0.3
ssS'12091'
p1344
(dp1345
g3
F2.761425
sg4
F0.668296
sg5
F1.002444
sg6
I2091
sg7
F0.3
ssS'12090'
p1346
(dp1347
g3
F2.6053699999999997
sg4
F0.651343
sg5
F1.0064140000000001
sg6
I2090
sg7
F0.3
ssS'12093'
p1348
(dp1349
g3
F3.363429
sg4
F0.708938
sg5
F1.063407
sg6
I2093
sg7
F0.3
ssS'12092'
p1350
(dp1351
g3
F4.298836
sg4
F0.777184
sg5
F1.1657769999999998
sg6
I2092
sg7
F0.3
ssS'12099'
p1352
(dp1353
g3
F2.715803
sg4
F0.638745
sg5
F0.958118
sg6
I2099
sg7
F0.3
ssS'12098'
p1354
(dp1355
g3
F2.6770729999999996
sg4
F0.5748960000000001
sg5
F0.8623430000000001
sg6
I2098
sg7
F0.3
ssS'12323'
p1356
(dp1357
g3
F2.411968
sg4
F0.602992
sg5
F1.8089760000000001
sg6
I2323
sg7
F0.2
ssS'12322'
p1358
(dp1359
g3
F2.440799
sg4
F0.6102000000000001
sg5
F1.830599
sg6
I2322
sg7
F0.2
ssS'12321'
p1360
(dp1361
g3
F2.3184620000000002
sg4
F0.579615
sg5
F1.7388460000000001
sg6
I2321
sg7
F0.2
ssS'12320'
p1362
(dp1363
g3
F2.32547
sg4
F0.581368
sg5
F1.744103
sg6
I2320
sg7
F0.2
ssS'12327'
p1364
(dp1365
g3
F2.3801740000000002
sg4
F0.595044
sg5
F1.785131
sg6
I2327
sg7
F0.2
ssS'12326'
p1366
(dp1367
g3
F2.406263
sg4
F0.6015659999999999
sg5
F1.804697
sg6
I2326
sg7
F0.2
ssS'12325'
p1368
(dp1369
g3
F2.395578
sg4
F0.598895
sg5
F1.796684
sg6
I2325
sg7
F0.2
ssS'12324'
p1370
(dp1371
g3
F2.42333
sg4
F0.6058319999999999
sg5
F1.817497
sg6
I2324
sg7
F0.2
ssS'11920'
p1372
(dp1373
g3
F2.039638
sg4
F0.407928
sg5
F1.495734
sg6
I1920
sg7
F0.2
ssS'11921'
p1374
(dp1375
g3
F1.773772
sg4
F0.354754
sg5
F1.300766
sg6
I1921
sg7
F0.2
ssS'12329'
p1376
(dp1377
g3
F2.348622
sg4
F0.587156
sg5
F1.7614670000000001
sg6
I2329
sg7
F0.2
ssS'12328'
p1378
(dp1379
g3
F2.39024
sg4
F0.59756
sg5
F1.79268
sg6
I2328
sg7
F0.2
ssS'11924'
p1380
(dp1381
g3
F2.084195
sg4
F0.416839
sg5
F1.52841
sg6
I1924
sg7
F0.2
ssS'11925'
p1382
(dp1383
g3
F1.631842
sg4
F0.37735100000000005
sg5
F1.213678
sg6
I1925
sg7
F0.2
ssS'11926'
p1384
(dp1385
g3
F1.343844
sg4
F0.300901
sg5
F0.451351
sg6
I1926
sg7
F0.3
ssS'11927'
p1386
(dp1387
g3
F1.481927
sg4
F0.296385
sg5
F1.086747
sg6
I1927
sg7
F0.2
ssS'11814'
p1388
(dp1389
g3
F2.271905
sg4
F0.528944
sg5
F0.793416
sg6
I1814
sg7
F0.3
ssS'11815'
p1390
(dp1391
g3
F2.3154529999999998
sg4
F0.517045
sg5
F0.7755670000000001
sg6
I1815
sg7
F0.3
ssS'11816'
p1392
(dp1393
g3
F2.2411510000000003
sg4
F0.560288
sg5
F0.87559
sg6
I1816
sg7
F0.3
ssS'11817'
p1394
(dp1395
g3
F2.230087
sg4
F0.5575220000000001
sg5
F0.860583
sg6
I1817
sg7
F0.3
ssS'11810'
p1396
(dp1397
g3
F2.7829880000000005
sg4
F0.6957470000000001
sg5
F2.087241
sg6
I1810
sg7
F0.3
ssS'11811'
p1398
(dp1399
g3
F3.187087
sg4
F0.796772
sg5
F2.3903149999999997
sg6
I1811
sg7
F0.3
ssS'11812'
p1400
(dp1401
g3
F2.977294
sg4
F0.617116
sg5
F0.9256740000000001
sg6
I1812
sg7
F0.3
ssS'11813'
p1402
(dp1403
g3
F2.837606
sg4
F0.585087
sg5
F0.87763
sg6
I1813
sg7
F0.3
ssS'11818'
p1404
(dp1405
g3
F2.080719
sg4
F0.513084
sg5
F0.769625
sg6
I1818
sg7
F0.3
ssS'11819'
p1406
(dp1407
g3
F2.178104
sg4
F0.544526
sg5
F0.8304130000000001
sg6
I1819
sg7
F0.3
ssS'13128'
p1408
(dp1409
g3
F3.43715
sg4
F0.8824209999999999
sg5
F2.585574
sg6
I3128
sg7
F0.2
ssS'13129'
p1410
(dp1411
g3
F3.619101
sg4
F0.993659
sg5
F2.7439530000000003
sg6
I3129
sg7
F0.2
ssS'12899'
p1412
(dp1413
g3
F2.110527
sg4
F0.696302
sg5
F1.044453
sg6
I2899
sg7
F0.3
ssS'12898'
p1414
(dp1415
g3
F2.247886
sg4
F0.7416200000000001
sg5
F1.1124290000000001
sg6
I2898
sg7
F0.3
ssS'12895'
p1416
(dp1417
g3
F2.146667
sg4
F0.47091500000000003
sg5
F0.7063729999999999
sg6
I2895
sg7
F0.3
ssS'12894'
p1418
(dp1419
g3
F2.117309
sg4
F0.38332099999999997
sg5
F0.574981
sg6
I2894
sg7
F0.3
ssS'12897'
p1420
(dp1421
g3
F2.018041
sg4
F0.6657890000000001
sg5
F0.9986839999999999
sg6
I2897
sg7
F0.3
ssS'12896'
p1422
(dp1423
g3
F2.078771
sg4
F0.6858249999999999
sg5
F1.028738
sg6
I2896
sg7
F0.3
ssS'12891'
p1424
(dp1425
g3
F1.9096629999999999
sg4
F0.418923
sg5
F0.6283850000000001
sg6
I2891
sg7
F0.3
ssS'12890'
p1426
(dp1427
g3
F1.9096629999999999
sg4
F0.418923
sg5
F0.6283850000000001
sg6
I2890
sg7
F0.3
ssS'12893'
p1428
(dp1429
g3
F2.146667
sg4
F0.47091500000000003
sg5
F0.7063729999999999
sg6
I2893
sg7
F0.3
ssS'12892'
p1430
(dp1431
g3
F2.0820670000000003
sg4
F0.456744
sg5
F0.685115
sg6
I2892
sg7
F0.3
ssS'12419'
p1432
(dp1433
g3
F2.3090260000000002
sg4
F0.633209
sg5
F1.75042
sg6
I2419
sg7
F0.2
ssS'12418'
p1434
(dp1435
g3
F2.284083
sg4
F0.629749
sg5
F1.7326380000000001
sg6
I2418
sg7
F0.2
ssS'12411'
p1436
(dp1437
g3
F2.37819
sg4
F0.654905
sg5
F1.803762
sg6
I2411
sg7
F0.2
ssS'12410'
p1438
(dp1439
g3
F2.3759989999999998
sg4
F0.6546150000000001
sg5
F1.8022040000000001
sg6
I2410
sg7
F0.2
ssS'12413'
p1440
(dp1441
g3
F2.241147
sg4
F0.599656
sg5
F1.693983
sg6
I2413
sg7
F0.2
ssS'12412'
p1442
(dp1443
g3
F2.2882320000000003
sg4
F0.609637
sg5
F1.728701
sg6
I2412
sg7
F0.2
ssS'12415'
p1444
(dp1445
g3
F2.274468
sg4
F0.607958
sg5
F1.718965
sg6
I2415
sg7
F0.2
ssS'12414'
p1446
(dp1447
g3
F2.2724320000000002
sg4
F0.6077210000000001
sg5
F1.7175280000000002
sg6
I2414
sg7
F0.2
ssS'12417'
p1448
(dp1449
g3
F2.244901
sg4
F0.6221679999999999
sg5
F1.7039900000000001
sg6
I2417
sg7
F0.2
ssS'12416'
p1450
(dp1451
g3
F2.228564
sg4
F0.598202
sg5
F1.6851099999999999
sg6
I2416
sg7
F0.2
ssS'12525'
p1452
(dp1453
g3
F1.741567
sg4
F0.35641300000000004
sg5
F1.279849
sg6
I2525
sg7
F0.2
ssS'12524'
p1454
(dp1455
g3
F2.160739
sg4
F0.478464
sg5
F1.239247
sg6
I2524
sg7
F0.2
ssS'12527'
p1456
(dp1457
g3
F1.5392009999999998
sg4
F0.30948899999999996
sg5
F1.129297
sg6
I2527
sg7
F0.2
ssS'12526'
p1458
(dp1459
g3
F1.332799
sg4
F0.26655999999999996
sg5
F0.9773860000000001
sg6
I2526
sg7
F0.2
ssS'12521'
p1460
(dp1461
g3
F2.983902
sg4
F0.7046129999999999
sg5
F1.3361070000000002
sg6
I2521
sg7
F0.2
ssS'12520'
p1462
(dp1463
g3
F3.4895650000000002
sg4
F0.8220919999999999
sg5
F1.3683770000000002
sg6
I2520
sg7
F0.2
ssS'12523'
p1464
(dp1465
g3
F2.33143
sg4
F0.486539
sg5
F1.345497
sg6
I2523
sg7
F0.2
ssS'12522'
p1466
(dp1467
g3
F2.6873050000000003
sg4
F0.599869
sg5
F1.415105
sg6
I2522
sg7
F0.2
ssS'12529'
p1468
(dp1469
g3
F2.629661
sg4
F0.503378
sg5
F0.7550669999999999
sg6
I2529
sg7
F0.3
ssS'12528'
p1470
(dp1471
g3
F1.1011929999999999
sg4
F0.22023900000000002
sg5
F0.807542
sg6
I2528
sg7
F0.2
ssS'12068'
p1472
(dp1473
g3
F2.0175870000000002
sg4
F0.36946599999999996
sg5
F0.554198
sg6
I2068
sg7
F0.3
ssS'12069'
p1474
(dp1475
g3
F2.1446330000000002
sg4
F0.397811
sg5
F0.596717
sg6
I2069
sg7
F0.3
ssS'12060'
p1476
(dp1477
g3
F2.239548
sg4
F0.46503999999999995
sg5
F0.697561
sg6
I2060
sg7
F0.3
ssS'12061'
p1478
(dp1479
g3
F2.10986
sg4
F0.459245
sg5
F0.6888679999999999
sg6
I2061
sg7
F0.3
ssS'12062'
p1480
(dp1481
g3
F2.072595
sg4
F0.480775
sg5
F0.7211620000000001
sg6
I2062
sg7
F0.3
ssS'12063'
p1482
(dp1483
g3
F2.156789
sg4
F0.494114
sg5
F0.7411709999999999
sg6
I2063
sg7
F0.3
ssS'12064'
p1484
(dp1485
g3
F2.202622
sg4
F0.545574
sg5
F0.818361
sg6
I2064
sg7
F0.3
ssS'12065'
p1486
(dp1487
g3
F2.242639
sg4
F0.56066
sg5
F0.859464
sg6
I2065
sg7
F0.3
ssS'12066'
p1488
(dp1489
g3
F2.236621
sg4
F0.5591550000000001
sg5
F0.851242
sg6
I2066
sg7
F0.3
ssS'12067'
p1490
(dp1491
g3
F2.042771
sg4
F0.407958
sg5
F0.611937
sg6
I2067
sg7
F0.3
ssS'12668'
p1492
(dp1493
g3
F1.8486879999999999
sg4
F0.501551
sg5
F0.752326
sg6
I2668
sg7
F0.3
ssS'12669'
p1494
(dp1495
g3
F1.843878
sg4
F0.5021289999999999
sg5
F0.753193
sg6
I2669
sg7
F0.3
ssS'12666'
p1496
(dp1497
g3
F1.816062
sg4
F0.505846
sg5
F0.75877
sg6
I2666
sg7
F0.3
ssS'12667'
p1498
(dp1499
g3
F1.809157
sg4
F0.506545
sg5
F0.7598170000000001
sg6
I2667
sg7
F0.3
ssS'12664'
p1500
(dp1501
g3
F1.831918
sg4
F0.503644
sg5
F0.755467
sg6
I2664
sg7
F0.3
ssS'12665'
p1502
(dp1503
g3
F1.8236590000000001
sg4
F0.5047659999999999
sg5
F0.75715
sg6
I2665
sg7
F0.3
ssS'12662'
p1504
(dp1505
g3
F1.726337
sg4
F0.420531
sg5
F0.630797
sg6
I2662
sg7
F0.3
ssS'12663'
p1506
(dp1507
g3
F1.718184
sg4
F0.4266
sg5
F0.6399
sg6
I2663
sg7
F0.3
ssS'12660'
p1508
(dp1509
g3
F1.653478
sg4
F0.45313699999999996
sg5
F0.679706
sg6
I2660
sg7
F0.3
ssS'12661'
p1510
(dp1511
g3
F1.6464480000000001
sg4
F0.45400199999999996
sg5
F0.681003
sg6
I2661
sg7
F0.3
ssS'12798'
p1512
(dp1513
g3
F1.8519079999999999
sg4
F0.494895
sg5
F0.7423430000000001
sg6
I2798
sg7
F0.3
ssS'12799'
p1514
(dp1515
g3
F1.8241640000000001
sg4
F0.498009
sg5
F0.747013
sg6
I2799
sg7
F0.3
ssS'12792'
p1516
(dp1517
g3
F1.784461
sg4
F0.433498
sg5
F0.6502469999999999
sg6
I2792
sg7
F0.3
ssS'12793'
p1518
(dp1519
g3
F1.949676
sg4
F0.48477
sg5
F0.7271550000000001
sg6
I2793
sg7
F0.3
ssS'12790'
p1520
(dp1521
g3
F1.945214
sg4
F0.451861
sg5
F0.677791
sg6
I2790
sg7
F0.3
ssS'12791'
p1522
(dp1523
g3
F1.814696
sg4
F0.431505
sg5
F0.6472570000000001
sg6
I2791
sg7
F0.3
ssS'12796'
p1524
(dp1525
g3
F1.885191
sg4
F0.49115499999999995
sg5
F0.736733
sg6
I2796
sg7
F0.3
ssS'12797'
p1526
(dp1527
g3
F1.856607
sg4
F0.494405
sg5
F0.741607
sg6
I2797
sg7
F0.3
ssS'12794'
p1528
(dp1529
g3
F1.9194309999999999
sg4
F0.48767099999999997
sg5
F0.731506
sg6
I2794
sg7
F0.3
ssS'12795'
p1530
(dp1531
g3
F1.939444
sg4
F0.485833
sg5
F0.728749
sg6
I2795
sg7
F0.3
ssS'12240'
p1532
(dp1533
g3
F2.179233
sg4
F0.505898
sg5
F0.758848
sg6
I2240
sg7
F0.3
ssS'12241'
p1534
(dp1535
g3
F2.312185
sg4
F0.48428899999999997
sg5
F0.726434
sg6
I2241
sg7
F0.3
ssS'12242'
p1536
(dp1537
g3
F2.280162
sg4
F0.504523
sg5
F0.756784
sg6
I2242
sg7
F0.3
ssS'12243'
p1538
(dp1539
g3
F2.211281
sg4
F0.486543
sg5
F0.729814
sg6
I2243
sg7
F0.3
ssS'12244'
p1540
(dp1541
g3
F2.277526
sg4
F0.504443
sg5
F0.756665
sg6
I2244
sg7
F0.3
ssS'12245'
p1542
(dp1543
g3
F2.114888
sg4
F0.472565
sg5
F0.708848
sg6
I2245
sg7
F0.3
ssS'12246'
p1544
(dp1545
g3
F2.115209
sg4
F0.528802
sg5
F0.8979699999999999
sg6
I2246
sg7
F0.3
ssS'12247'
p1546
(dp1547
g3
F2.1102279999999998
sg4
F0.47184899999999996
sg5
F0.707773
sg6
I2247
sg7
F0.3
ssS'12248'
p1548
(dp1549
g3
F2.02737
sg4
F0.46228700000000006
sg5
F0.693431
sg6
I2248
sg7
F0.3
ssS'12249'
p1550
(dp1551
g3
F2.011542
sg4
F0.46096899999999996
sg5
F0.6914530000000001
sg6
I2249
sg7
F0.3
ssS'12086'
p1552
(dp1553
g3
F2.5343809999999998
sg4
F0.55224
sg5
F0.828359
sg6
I2086
sg7
F0.3
ssS'12087'
p1554
(dp1555
g3
F2.521843
sg4
F0.582509
sg5
F0.873763
sg6
I2087
sg7
F0.3
ssS'12084'
p1556
(dp1557
g3
F2.408036
sg4
F0.602009
sg5
F0.960664
sg6
I2084
sg7
F0.3
ssS'12085'
p1558
(dp1559
g3
F2.499996
sg4
F0.563547
sg5
F0.84532
sg6
I2085
sg7
F0.3
ssS'12082'
p1560
(dp1561
g3
F2.398271
sg4
F0.555709
sg5
F0.833564
sg6
I2082
sg7
F0.3
ssS'12083'
p1562
(dp1563
g3
F2.354317
sg4
F0.424098
sg5
F0.636147
sg6
I2083
sg7
F0.3
ssS'12080'
p1564
(dp1565
g3
F2.6316800000000002
sg4
F0.579333
sg5
F0.8690000000000001
sg6
I2080
sg7
F0.3
ssS'12081'
p1566
(dp1567
g3
F2.8890589999999996
sg4
F0.528168
sg5
F0.792252
sg6
I2081
sg7
F0.3
ssS'12088'
p1568
(dp1569
g3
F2.5508
sg4
F0.573408
sg5
F0.860112
sg6
I2088
sg7
F0.3
ssS'12089'
p1570
(dp1571
g3
F2.549581
sg4
F0.591276
sg5
F0.886914
sg6
I2089
sg7
F0.3
ssS'12338'
p1572
(dp1573
g3
F3.00396
sg4
F0.777993
sg5
F2.261971
sg6
I2338
sg7
F0.2
ssS'12339'
p1574
(dp1575
g3
F2.816891
sg4
F0.732563
sg5
F2.122115
sg6
I2339
sg7
F0.2
ssS'12334'
p1576
(dp1577
g3
F2.6138670000000004
sg4
F0.653467
sg5
F1.9604
sg6
I2334
sg7
F0.2
ssS'12335'
p1578
(dp1579
g3
F2.726861
sg4
F0.7022750000000001
sg5
F2.0519990000000004
sg6
I2335
sg7
F0.2
ssS'12336'
p1580
(dp1581
g3
F3.017935
sg4
F0.7805570000000001
sg5
F2.272142
sg6
I2336
sg7
F0.2
ssS'12337'
p1582
(dp1583
g3
F2.975711
sg4
F0.7728449999999999
sg5
F2.241422
sg6
I2337
sg7
F0.2
ssS'12330'
p1584
(dp1585
g3
F2.637318
sg4
F0.659329
sg5
F1.977988
sg6
I2330
sg7
F0.2
ssS'12331'
p1586
(dp1587
g3
F2.495615
sg4
F0.623904
sg5
F1.871711
sg6
I2331
sg7
F0.2
ssS'12332'
p1588
(dp1589
g3
F2.505661
sg4
F0.626415
sg5
F1.879246
sg6
I2332
sg7
F0.2
ssS'12333'
p1590
(dp1591
g3
F2.515937
sg4
F0.628984
sg5
F1.886953
sg6
I2333
sg7
F0.2
ssS'12547'
p1592
(dp1593
g3
F2.128563
sg4
F0.44733199999999995
sg5
F0.670997
sg6
I2547
sg7
F0.3
ssS'11751'
p1594
(dp1595
g3
F2.6860399999999998
sg4
F0.6715099999999999
sg5
F1.94196
sg6
I1751
sg7
F0.3
ssS'12546'
p1596
(dp1597
g3
F1.818346
sg4
F0.383425
sg5
F0.575137
sg6
I2546
sg7
F0.3
ssS'11750'
p1598
(dp1599
g3
F2.874876
sg4
F0.718719
sg5
F2.010169
sg6
I1750
sg7
F0.3
ssS'12545'
p1600
(dp1601
g3
F1.861796
sg4
F0.38164299999999995
sg5
F0.572464
sg6
I2545
sg7
F0.3
ssS'11861'
p1602
(dp1603
g3
F2.101238
sg4
F0.525309
sg5
F0.943725
sg6
I1861
sg7
F0.3
ssS'11860'
p1604
(dp1605
g3
F2.339989
sg4
F0.584997
sg5
F1.754992
sg6
I1860
sg7
F0.2
ssS'11863'
p1606
(dp1607
g3
F2.347357
sg4
F0.564589
sg5
F0.8468829999999999
sg6
I1863
sg7
F0.3
ssS'11862'
p1608
(dp1609
g3
F2.334559
sg4
F0.560599
sg5
F0.840899
sg6
I1862
sg7
F0.3
ssS'11865'
p1610
(dp1611
g3
F2.17941
sg4
F0.446027
sg5
F0.669041
sg6
I1865
sg7
F0.3
ssS'11864'
p1612
(dp1613
g3
F2.157815
sg4
F0.47603
sg5
F0.714045
sg6
I1864
sg7
F0.3
ssS'11867'
p1614
(dp1615
g3
F2.368918
sg4
F0.519417
sg5
F0.779125
sg6
I1867
sg7
F0.3
ssS'11866'
p1616
(dp1617
g3
F2.34881
sg4
F0.49926299999999996
sg5
F0.748894
sg6
I1866
sg7
F0.3
ssS'11869'
p1618
(dp1619
g3
F2.141576
sg4
F0.486199
sg5
F0.729298
sg6
I1869
sg7
F0.3
ssS'11868'
p1620
(dp1621
g3
F2.122953
sg4
F0.5307379999999999
sg5
F0.868732
sg6
I1868
sg7
F0.3
ssS'13119'
p1622
(dp1623
g3
F2.8952730000000004
sg4
F0.723818
sg5
F2.171455
sg6
I3119
sg7
F0.2
ssS'13118'
p1624
(dp1625
g3
F2.8618560000000004
sg4
F0.7154640000000001
sg5
F2.146392
sg6
I3118
sg7
F0.2
ssS'12542'
p1626
(dp1627
g3
F1.875511
sg4
F0.381512
sg5
F0.572268
sg6
I2542
sg7
F0.3
ssS'12541'
p1628
(dp1629
g3
F1.8607079999999998
sg4
F0.381631
sg5
F0.572447
sg6
I2541
sg7
F0.3
ssS'12540'
p1630
(dp1631
g3
F1.874991
sg4
F0.381505
sg5
F0.572258
sg6
I2540
sg7
F0.3
ssS'11759'
p1632
(dp1633
g3
F2.9587779999999997
sg4
F0.739694
sg5
F2.219083
sg6
I1759
sg7
F0.2
ssS'11758'
p1634
(dp1635
g3
F2.884515
sg4
F0.7211289999999999
sg5
F2.163386
sg6
I1758
sg7
F0.2
ssS'12888'
p1636
(dp1637
g3
F1.944539
sg4
F0.426574
sg5
F0.639861
sg6
I2888
sg7
F0.3
ssS'12889'
p1638
(dp1639
g3
F1.944539
sg4
F0.426574
sg5
F0.639861
sg6
I2889
sg7
F0.3
ssS'12886'
p1640
(dp1641
g3
F1.900635
sg4
F0.416943
sg5
F0.625414
sg6
I2886
sg7
F0.3
ssS'12887'
p1642
(dp1643
g3
F1.944539
sg4
F0.426574
sg5
F0.639861
sg6
I2887
sg7
F0.3
ssS'12884'
p1644
(dp1645
g3
F1.895658
sg4
F0.41585099999999997
sg5
F0.623777
sg6
I2884
sg7
F0.3
ssS'12885'
p1646
(dp1647
g3
F1.9177529999999998
sg4
F0.420698
sg5
F0.631047
sg6
I2885
sg7
F0.3
ssS'12882'
p1648
(dp1649
g3
F1.9341480000000002
sg4
F0.424295
sg5
F0.636442
sg6
I2882
sg7
F0.3
ssS'12883'
p1650
(dp1651
g3
F1.8843100000000002
sg4
F0.413362
sg5
F0.620042
sg6
I2883
sg7
F0.3
ssS'12880'
p1652
(dp1653
g3
F1.927754
sg4
F0.403256
sg5
F0.604884
sg6
I2880
sg7
F0.3
ssS'12881'
p1654
(dp1655
g3
F1.9096629999999999
sg4
F0.39947200000000005
sg5
F0.5992069999999999
sg6
I2881
sg7
F0.3
ssS'12408'
p1656
(dp1657
g3
F2.224836
sg4
F0.6076250000000001
sg5
F1.6857650000000002
sg6
I2408
sg7
F0.2
ssS'12409'
p1658
(dp1659
g3
F2.242332
sg4
F0.615096
sg5
F1.6999199999999999
sg6
I2409
sg7
F0.2
ssS'12402'
p1660
(dp1661
g3
F2.280741
sg4
F0.570185
sg5
F1.710555
sg6
I2402
sg7
F0.2
ssS'12403'
p1662
(dp1663
g3
F2.2855779999999997
sg4
F0.601867
sg5
F1.724341
sg6
I2403
sg7
F0.2
ssS'12400'
p1664
(dp1665
g3
F2.086388
sg4
F0.521597
sg5
F1.5647909999999998
sg6
I2400
sg7
F0.2
ssS'12401'
p1666
(dp1667
g3
F2.2929150000000003
sg4
F0.573229
sg5
F1.719686
sg6
I2401
sg7
F0.2
ssS'12406'
p1668
(dp1669
g3
F2.300039
sg4
F0.608604
sg5
F1.7362270000000002
sg6
I2406
sg7
F0.2
ssS'12407'
p1670
(dp1671
g3
F2.30235
sg4
F0.608916
sg5
F1.737872
sg6
I2407
sg7
F0.2
ssS'12404'
p1672
(dp1673
g3
F2.248454
sg4
F0.595167
sg5
F1.6973589999999998
sg6
I2404
sg7
F0.2
ssS'12405'
p1674
(dp1675
g3
F2.314628
sg4
F0.612639
sg5
F1.747298
sg6
I2405
sg7
F0.2
ssS'12536'
p1676
(dp1677
g3
F1.8747319999999998
sg4
F0.381502
sg5
F0.572253
sg6
I2536
sg7
F0.3
ssS'12537'
p1678
(dp1679
g3
F1.888776
sg4
F0.381375
sg5
F0.572063
sg6
I2537
sg7
F0.3
ssS'12534'
p1680
(dp1681
g3
F1.849358
sg4
F0.376383
sg5
F0.564575
sg6
I2534
sg7
F0.3
ssS'12535'
p1682
(dp1683
g3
F1.838061
sg4
F0.372917
sg5
F0.559376
sg6
I2535
sg7
F0.3
ssS'12532'
p1684
(dp1685
g3
F1.829296
sg4
F0.37297800000000003
sg5
F0.559467
sg6
I2532
sg7
F0.3
ssS'12533'
p1686
(dp1687
g3
F1.866587
sg4
F0.37268900000000005
sg5
F0.559033
sg6
I2533
sg7
F0.3
ssS'12530'
p1688
(dp1689
g3
F2.604366
sg4
F0.503122
sg5
F0.754683
sg6
I2530
sg7
F0.3
ssS'12531'
p1690
(dp1691
g3
F2.203311
sg4
F0.43902700000000006
sg5
F0.65854
sg6
I2531
sg7
F0.3
ssS'12538'
p1692
(dp1693
g3
F1.8744720000000001
sg4
F0.381498
sg5
F0.572247
sg6
I2538
sg7
F0.3
ssS'12539'
p1694
(dp1695
g3
F1.860977
sg4
F0.381786
sg5
F0.5726789999999999
sg6
I2539
sg7
F0.3
ssS'12659'
p1696
(dp1697
g3
F1.640127
sg4
F0.45489199999999996
sg5
F0.682338
sg6
I2659
sg7
F0.3
ssS'12658'
p1698
(dp1699
g3
F1.952087
sg4
F0.552203
sg5
F0.8283039999999999
sg6
I2658
sg7
F0.3
ssS'12653'
p1700
(dp1701
g3
F1.899196
sg4
F0.574181
sg5
F0.861271
sg6
I2653
sg7
F0.3
ssS'12652'
p1702
(dp1703
g3
F1.9062649999999999
sg4
F0.5731430000000001
sg5
F0.859714
sg6
I2652
sg7
F0.3
ssS'12651'
p1704
(dp1705
g3
F1.6367269999999998
sg4
F0.417178
sg5
F0.6257670000000001
sg6
I2651
sg7
F0.3
ssS'12650'
p1706
(dp1707
g3
F1.438528
sg4
F0.351609
sg5
F0.527413
sg6
I2650
sg7
F0.3
ssS'12657'
p1708
(dp1709
g3
F1.9603389999999998
sg4
F0.5659109999999999
sg5
F0.848867
sg6
I2657
sg7
F0.3
ssS'12656'
p1710
(dp1711
g3
F1.9223050000000002
sg4
F0.571056
sg5
F0.856584
sg6
I2656
sg7
F0.3
ssS'12655'
p1712
(dp1713
g3
F1.907029
sg4
F0.573059
sg5
F0.859589
sg6
I2655
sg7
F0.3
ssS'12654'
p1714
(dp1715
g3
F1.891838
sg4
F0.5751700000000001
sg5
F0.8627549999999999
sg6
I2654
sg7
F0.3
ssS'12349'
p1716
(dp1717
g3
F2.463297
sg4
F0.681648
sg5
F1.869414
sg6
I2349
sg7
F0.2
ssS'12348'
p1718
(dp1719
g3
F2.477821
sg4
F0.6837949999999999
sg5
F1.879812
sg6
I2348
sg7
F0.2
ssS'12341'
p1720
(dp1721
g3
F3.012066
sg4
F0.769099
sg5
F2.264411
sg6
I2341
sg7
F0.2
ssS'12340'
p1722
(dp1723
g3
F2.87342
sg4
F0.751426
sg5
F2.166089
sg6
I2340
sg7
F0.2
ssS'12343'
p1724
(dp1725
g3
F2.855548
sg4
F0.742163
sg5
F2.151087
sg6
I2343
sg7
F0.2
ssS'12342'
p1726
(dp1727
g3
F2.985483
sg4
F0.764469
sg5
F2.245145
sg6
I2342
sg7
F0.2
ssS'12345'
p1728
(dp1729
g3
F2.771392
sg4
F0.728203
sg5
F2.090329
sg6
I2345
sg7
F0.2
ssS'12344'
p1730
(dp1731
g3
F2.790684
sg4
F0.731339
sg5
F2.1042359999999998
sg6
I2344
sg7
F0.2
ssS'12347'
p1732
(dp1733
g3
F2.903089
sg4
F0.7257720000000001
sg5
F2.177317
sg6
I2347
sg7
F0.2
ssS'12346'
p1734
(dp1735
g3
F2.45004
sg4
F0.6668999999999999
sg5
F1.85566
sg6
I2346
sg7
F0.2
ssS'11872'
p1736
(dp1737
g3
F2.168635
sg4
F0.475486
sg5
F0.713228
sg6
I1872
sg7
F0.3
ssS'11873'
p1738
(dp1739
g3
F2.402745
sg4
F0.48562
sg5
F0.72843
sg6
I1873
sg7
F0.3
ssS'11870'
p1740
(dp1741
g3
F2.1499170000000003
sg4
F0.465291
sg5
F0.697937
sg6
I1870
sg7
F0.3
ssS'11871'
p1742
(dp1743
g3
F2.125201
sg4
F0.476224
sg5
F0.714336
sg6
I1871
sg7
F0.3
ssS'11876'
p1744
(dp1745
g3
F2.303675
sg4
F0.549476
sg5
F0.8242149999999999
sg6
I1876
sg7
F0.3
ssS'11877'
p1746
(dp1747
g3
F2.279792
sg4
F0.569948
sg5
F0.892472
sg6
I1877
sg7
F0.3
ssS'11874'
p1748
(dp1749
g3
F2.151849
sg4
F0.441988
sg5
F0.662981
sg6
I1874
sg7
F0.3
ssS'11875'
p1750
(dp1751
g3
F2.1695930000000003
sg4
F0.465699
sg5
F0.698548
sg6
I1875
sg7
F0.3
ssS'13104'
p1752
(dp1753
g3
F2.43
sg4
F0.6075
sg5
F1.8225
sg6
I3104
sg7
F0.2
ssS'13105'
p1754
(dp1755
g3
F2.283734
sg4
F0.570933
sg5
F1.7128
sg6
I3105
sg7
F0.2
ssS'11878'
p1756
(dp1757
g3
F2.291497
sg4
F0.572874
sg5
F0.8692319999999999
sg6
I1878
sg7
F0.3
ssS'11879'
p1758
(dp1759
g3
F2.359146
sg4
F0.5897870000000001
sg5
F1.76936
sg6
I1879
sg7
F0.2
ssS'13100'
p1760
(dp1761
g3
F3.059513
sg4
F0.8155060000000001
sg5
F2.3115110000000003
sg6
I3100
sg7
F0.2
ssS'13101'
p1762
(dp1763
g3
F2.980351
sg4
F0.832064
sg5
F2.264255
sg6
I3101
sg7
F0.2
ssS'13102'
p1764
(dp1765
g3
F2.87669
sg4
F0.7895
sg5
F2.1809600000000002
sg6
I3102
sg7
F0.2
ssS'13103'
p1766
(dp1767
g3
F2.67807
sg4
F0.6695180000000001
sg5
F2.008553
sg6
I3103
sg7
F0.2
ssS'12437'
p1768
(dp1769
g3
F2.166878
sg4
F0.623767
sg5
F1.652508
sg6
I2437
sg7
F0.2
ssS'12436'
p1770
(dp1771
g3
F2.566469
sg4
F0.641617
sg5
F1.924852
sg6
I2436
sg7
F0.2
ssS'12435'
p1772
(dp1773
g3
F2.6345870000000002
sg4
F0.658647
sg5
F1.97594
sg6
I2435
sg7
F0.2
ssS'12434'
p1774
(dp1775
g3
F2.644411
sg4
F0.661103
sg5
F1.983308
sg6
I2434
sg7
F0.2
ssS'12433'
p1776
(dp1777
g3
F2.316427
sg4
F0.579107
sg5
F1.73732
sg6
I2433
sg7
F0.2
ssS'12432'
p1778
(dp1779
g3
F2.541766
sg4
F0.635441
sg5
F1.906324
sg6
I2432
sg7
F0.2
ssS'12431'
p1780
(dp1781
g3
F2.59462
sg4
F0.648655
sg5
F1.945965
sg6
I2431
sg7
F0.2
ssS'12430'
p1782
(dp1783
g3
F2.60807
sg4
F0.6520170000000001
sg5
F1.956052
sg6
I2430
sg7
F0.2
ssS'12439'
p1784
(dp1785
g3
F2.1938910000000003
sg4
F0.630349
sg5
F1.67271
sg6
I2439
sg7
F0.2
ssS'12438'
p1786
(dp1787
g3
F2.1803690000000002
sg4
F0.6272220000000001
sg5
F1.662653
sg6
I2438
sg7
F0.2
ssS'13115'
p1788
(dp1789
g3
F2.8227949999999997
sg4
F0.7056990000000001
sg5
F2.117096
sg6
I3115
sg7
F0.2
ssS'11782'
p1790
(dp1791
g3
F2.531096
sg4
F0.632774
sg5
F1.898322
sg6
I1782
sg7
F0.2
ssS'11783'
p1792
(dp1793
g3
F2.311099
sg4
F0.577775
sg5
F1.733324
sg6
I1783
sg7
F0.2
ssS'12503'
p1794
(dp1795
g3
F2.837053
sg4
F0.710596
sg5
F2.128234
sg6
I2503
sg7
F0.2
ssS'12502'
p1796
(dp1797
g3
F2.8716570000000003
sg4
F0.7179139999999999
sg5
F2.153743
sg6
I2502
sg7
F0.2
ssS'12501'
p1798
(dp1799
g3
F2.8716899999999996
sg4
F0.717923
sg5
F2.153768
sg6
I2501
sg7
F0.2
ssS'12500'
p1800
(dp1801
g3
F2.65747
sg4
F0.6962090000000001
sg5
F2.003716
sg6
I2500
sg7
F0.2
ssS'12507'
p1802
(dp1803
g3
F2.8716899999999996
sg4
F0.717923
sg5
F2.153768
sg6
I2507
sg7
F0.2
ssS'12506'
p1804
(dp1805
g3
F2.8716570000000003
sg4
F0.7179139999999999
sg5
F2.153743
sg6
I2506
sg7
F0.2
ssS'12505'
p1806
(dp1807
g3
F2.8716570000000003
sg4
F0.7179139999999999
sg5
F2.153743
sg6
I2505
sg7
F0.2
ssS'12504'
p1808
(dp1809
g3
F2.8716570000000003
sg4
F0.7179139999999999
sg5
F2.153743
sg6
I2504
sg7
F0.2
ssS'11788'
p1810
(dp1811
g3
F2.336132
sg4
F0.584033
sg5
F1.752099
sg6
I1788
sg7
F0.2
ssS'12509'
p1812
(dp1813
g3
F2.55079
sg4
F0.66821
sg5
F1.923263
sg6
I2509
sg7
F0.2
ssS'12508'
p1814
(dp1815
g3
F2.7373570000000003
sg4
F0.713176
sg5
F2.06263
sg6
I2508
sg7
F0.2
ssS'11789'
p1816
(dp1817
g3
F2.560888
sg4
F0.640222
sg5
F1.828588
sg6
I1789
sg7
F0.3
ssS'12644'
p1818
(dp1819
g3
F1.851326
sg4
F0.527459
sg5
F0.7911889999999999
sg6
I2644
sg7
F0.3
ssS'12645'
p1820
(dp1821
g3
F1.865566
sg4
F0.525608
sg5
F0.788411
sg6
I2645
sg7
F0.3
ssS'12646'
p1822
(dp1823
g3
F1.8352959999999998
sg4
F0.529491
sg5
F0.7942359999999999
sg6
I2646
sg7
F0.3
ssS'12647'
p1824
(dp1825
g3
F1.8499240000000001
sg4
F0.527651
sg5
F0.791476
sg6
I2647
sg7
F0.3
ssS'12640'
p1826
(dp1827
g3
F1.8380109999999998
sg4
F0.52903
sg5
F0.7935450000000001
sg6
I2640
sg7
F0.3
ssS'12641'
p1828
(dp1829
g3
F1.8523910000000001
sg4
F0.527191
sg5
F0.790786
sg6
I2641
sg7
F0.3
ssS'12642'
p1830
(dp1831
g3
F1.8445740000000002
sg4
F0.528238
sg5
F0.792357
sg6
I2642
sg7
F0.3
ssS'12643'
p1832
(dp1833
g3
F1.8368209999999998
sg4
F0.529327
sg5
F0.79399
sg6
I2643
sg7
F0.3
ssS'12648'
p1834
(dp1835
g3
F1.6772280000000002
sg4
F0.464873
sg5
F0.6973090000000001
sg6
I2648
sg7
F0.3
ssS'12649'
p1836
(dp1837
g3
F1.711956
sg4
F0.46078899999999995
sg5
F0.6911839999999999
sg6
I2649
sg7
F0.3
ssS'12358'
p1838
(dp1839
g3
F2.489484
sg4
F0.6855589999999999
sg5
F1.888175
sg6
I2358
sg7
F0.2
ssS'12359'
p1840
(dp1841
g3
F2.507945
sg4
F0.688411
sg5
F1.901434
sg6
I2359
sg7
F0.2
ssS'12352'
p1842
(dp1843
g3
F2.427448
sg4
F0.6766570000000001
sg5
F1.843851
sg6
I2352
sg7
F0.2
ssS'12353'
p1844
(dp1845
g3
F2.4010149999999997
sg4
F0.673043
sg5
F1.825024
sg6
I2353
sg7
F0.2
ssS'12350'
p1846
(dp1847
g3
F2.4496700000000002
sg4
F0.679692
sg5
F1.859677
sg6
I2350
sg7
F0.2
ssS'12351'
p1848
(dp1849
g3
F2.4369560000000003
sg4
F0.677929
sg5
F1.850614
sg6
I2351
sg7
F0.2
ssS'12356'
p1850
(dp1851
g3
F2.444674
sg4
F0.678991
sg5
F1.856113
sg6
I2356
sg7
F0.2
ssS'12357'
p1852
(dp1853
g3
F2.452144
sg4
F0.6800419999999999
sg5
F1.861443
sg6
I2357
sg7
F0.2
ssS'12354'
p1854
(dp1855
g3
F2.439712
sg4
F0.6783060000000001
sg5
F1.852576
sg6
I2354
sg7
F0.2
ssS'12355'
p1856
(dp1857
g3
F2.440712
sg4
F0.678443
sg5
F1.853289
sg6
I2355
sg7
F0.2
ssS'11999'
p1858
(dp1859
g3
F1.5939400000000001
sg4
F0.341822
sg5
F0.5127320000000001
sg6
I1999
sg7
F0.3
ssS'11998'
p1860
(dp1861
g3
F1.4911029999999998
sg4
F0.323753
sg5
F0.485629
sg6
I1998
sg7
F0.3
ssS'11991'
p1862
(dp1863
g3
F1.532057
sg4
F0.295272
sg5
F0.44290799999999997
sg6
I1991
sg7
F0.3
ssS'11990'
p1864
(dp1865
g3
F1.378994
sg4
F0.27609100000000003
sg5
F0.414137
sg6
I1990
sg7
F0.3
ssS'11993'
p1866
(dp1867
g3
F1.395968
sg4
F0.281556
sg5
F0.422333
sg6
I1993
sg7
F0.3
ssS'11992'
p1868
(dp1869
g3
F1.5514750000000002
sg4
F0.30388000000000004
sg5
F0.45582
sg6
I1992
sg7
F0.3
ssS'11995'
p1870
(dp1871
g3
F1.453864
sg4
F0.321587
sg5
F0.48238
sg6
I1995
sg7
F0.3
ssS'11994'
p1872
(dp1873
g3
F1.3712710000000001
sg4
F0.287343
sg5
F0.431014
sg6
I1994
sg7
F0.3
ssS'11997'
p1874
(dp1875
g3
F1.486291
sg4
F0.325702
sg5
F0.488553
sg6
I1997
sg7
F0.3
ssS'11996'
p1876
(dp1877
g3
F1.4290280000000002
sg4
F0.317185
sg5
F0.475777
sg6
I1996
sg7
F0.3
ssS'11849'
p1878
(dp1879
g3
F2.459791
sg4
F0.505655
sg5
F0.7584829999999999
sg6
I1849
sg7
F0.3
ssS'11848'
p1880
(dp1881
g3
F2.40354
sg4
F0.579504
sg5
F0.869256
sg6
I1848
sg7
F0.3
ssS'11847'
p1882
(dp1883
g3
F2.210358
sg4
F0.552589
sg5
F0.878592
sg6
I1847
sg7
F0.3
ssS'11846'
p1884
(dp1885
g3
F2.227073
sg4
F0.556625
sg5
F0.834937
sg6
I1846
sg7
F0.3
ssS'11845'
p1886
(dp1887
g3
F2.283325
sg4
F0.559916
sg5
F0.8398730000000001
sg6
I1845
sg7
F0.3
ssS'11844'
p1888
(dp1889
g3
F2.315111
sg4
F0.570188
sg5
F0.855282
sg6
I1844
sg7
F0.3
ssS'11843'
p1890
(dp1891
g3
F2.323703
sg4
F0.569724
sg5
F0.8545860000000001
sg6
I1843
sg7
F0.3
ssS'11842'
p1892
(dp1893
g3
F2.328984
sg4
F0.565426
sg5
F0.8481390000000001
sg6
I1842
sg7
F0.3
ssS'11841'
p1894
(dp1895
g3
F2.3288659999999997
sg4
F0.566501
sg5
F0.8497509999999999
sg6
I1841
sg7
F0.3
ssS'11840'
p1896
(dp1897
g3
F2.323245
sg4
F0.562968
sg5
F0.844451
sg6
I1840
sg7
F0.3
ssS'13005'
p1898
(dp1899
g3
F1.24822
sg4
F0.324862
sg5
F0.487294
sg6
I3005
sg7
F0.2
ssS'13004'
p1900
(dp1901
g3
F1.663713
sg4
F0.402001
sg5
F0.651987
sg6
I3004
sg7
F0.2
ssS'13007'
p1902
(dp1903
g3
F1.3343889999999998
sg4
F0.36057
sg5
F0.5408550000000001
sg6
I3007
sg7
F0.2
ssS'13006'
p1904
(dp1905
g3
F1.30066
sg4
F0.356584
sg5
F0.534876
sg6
I3006
sg7
F0.2
ssS'13001'
p1906
(dp1907
g3
F2.644623
sg4
F0.87251
sg5
F1.308765
sg6
I3001
sg7
F0.3
ssS'13000'
p1908
(dp1909
g3
F2.4071190000000002
sg4
F0.435788
sg5
F0.653682
sg6
I3000
sg7
F0.3
ssS'13003'
p1910
(dp1911
g3
F1.646389
sg4
F0.431199
sg5
F0.646799
sg6
I3003
sg7
F0.2
ssS'13002'
p1912
(dp1913
g3
F1.802057
sg4
F0.41147399999999995
sg5
F0.707526
sg6
I3002
sg7
F0.2
ssS'13108'
p1914
(dp1915
g3
F2.247551
sg4
F0.561888
sg5
F1.6856630000000001
sg6
I3108
sg7
F0.2
ssS'13009'
p1916
(dp1917
g3
F2.885657
sg4
F0.8336480000000001
sg5
F2.201654
sg6
I3009
sg7
F0.2
ssS'13008'
p1918
(dp1919
g3
F2.415
sg4
F0.42
sg5
F0.7575
sg6
I3008
sg7
F0.4
ssS'13109'
p1920
(dp1921
g3
F2.89752
sg4
F0.72438
sg5
F2.17314
sg6
I3109
sg7
F0.2
ssS'13106'
p1922
(dp1923
g3
F2.217111
sg4
F0.5542779999999999
sg5
F1.662833
sg6
I3106
sg7
F0.2
ssS'13107'
p1924
(dp1925
g3
F2.223084
sg4
F0.555771
sg5
F1.667313
sg6
I3107
sg7
F0.2
ssS'12420'
p1926
(dp1927
g3
F2.0814500000000002
sg4
F0.568615
sg5
F1.577172
sg6
I2420
sg7
F0.2
ssS'12421'
p1928
(dp1929
g3
F2.655976
sg4
F0.663994
sg5
F1.9919820000000001
sg6
I2421
sg7
F0.2
ssS'12422'
p1930
(dp1931
g3
F2.63737
sg4
F0.6593420000000001
sg5
F1.978027
sg6
I2422
sg7
F0.2
ssS'12423'
p1932
(dp1933
g3
F2.63977
sg4
F0.659943
sg5
F1.979828
sg6
I2423
sg7
F0.2
ssS'12424'
p1934
(dp1935
g3
F2.625723
sg4
F0.656431
sg5
F1.969292
sg6
I2424
sg7
F0.2
ssS'12425'
p1936
(dp1937
g3
F2.51803
sg4
F0.629508
sg5
F1.8885230000000002
sg6
I2425
sg7
F0.2
ssS'12426'
p1938
(dp1939
g3
F2.396874
sg4
F0.631354
sg5
F1.808367
sg6
I2426
sg7
F0.2
ssS'12427'
p1940
(dp1941
g3
F2.897816
sg4
F0.7384000000000001
sg5
F2.1780109999999997
sg6
I2427
sg7
F0.2
ssS'12428'
p1942
(dp1943
g3
F2.639571
sg4
F0.659893
sg5
F1.979679
sg6
I2428
sg7
F0.2
ssS'12429'
p1944
(dp1945
g3
F2.691715
sg4
F0.672929
sg5
F2.018786
sg6
I2429
sg7
F0.2
ssS'12518'
p1946
(dp1947
g3
F3.056816
sg4
F0.646083
sg5
F1.740135
sg6
I2518
sg7
F0.2
ssS'12519'
p1948
(dp1949
g3
F2.455605
sg4
F0.491121
sg5
F1.400907
sg6
I2519
sg7
F0.2
ssS'12514'
p1950
(dp1951
g3
F2.28316
sg4
F0.574369
sg5
F1.713563
sg6
I2514
sg7
F0.2
ssS'12515'
p1952
(dp1953
g3
F2.353148
sg4
F0.614225
sg5
F1.773507
sg6
I2515
sg7
F0.2
ssS'12516'
p1954
(dp1955
g3
F2.584574
sg4
F0.6770520000000001
sg5
F1.948734
sg6
I2516
sg7
F0.2
ssS'12517'
p1956
(dp1957
g3
F2.5618529999999997
sg4
F0.673462
sg5
F1.932389
sg6
I2517
sg7
F0.2
ssS'12510'
p1958
(dp1959
g3
F2.2561
sg4
F0.564025
sg5
F1.692075
sg6
I2510
sg7
F0.2
ssS'12511'
p1960
(dp1961
g3
F2.244519
sg4
F0.56113
sg5
F1.683389
sg6
I2511
sg7
F0.2
ssS'12512'
p1962
(dp1963
g3
F2.2478309999999997
sg4
F0.561958
sg5
F1.685873
sg6
I2512
sg7
F0.2
ssS'12513'
p1964
(dp1965
g3
F2.267418
sg4
F0.566854
sg5
F1.7005629999999998
sg6
I2513
sg7
F0.2
ssS'12631'
p1966
(dp1967
g3
F1.714117
sg4
F0.446008
sg5
F0.669012
sg6
I2631
sg7
F0.3
ssS'12630'
p1968
(dp1969
g3
F1.7228729999999999
sg4
F0.445351
sg5
F0.668026
sg6
I2630
sg7
F0.3
ssS'12633'
p1970
(dp1971
g3
F1.6982570000000001
sg4
F0.447797
sg5
F0.671695
sg6
I2633
sg7
F0.3
ssS'12632'
p1972
(dp1973
g3
F1.7290280000000002
sg4
F0.44481499999999996
sg5
F0.667222
sg6
I2632
sg7
F0.3
ssS'12635'
p1974
(dp1975
g3
F1.7267080000000001
sg4
F0.444976
sg5
F0.667464
sg6
I2635
sg7
F0.3
ssS'12634'
p1976
(dp1977
g3
F1.7121389999999999
sg4
F0.44626699999999997
sg5
F0.6694
sg6
I2634
sg7
F0.3
ssS'12637'
p1978
(dp1979
g3
F1.6711170000000002
sg4
F0.458022
sg5
F0.687033
sg6
I2637
sg7
F0.3
ssS'12636'
p1980
(dp1981
g3
F1.695967
sg4
F0.448001
sg5
F0.672002
sg6
I2636
sg7
F0.3
ssS'12639'
p1982
(dp1983
g3
F1.846113
sg4
F0.5280830000000001
sg5
F0.7921250000000001
sg6
I2639
sg7
F0.3
ssS'12638'
p1984
(dp1985
g3
F1.667748
sg4
F0.466015
sg5
F0.6990219999999999
sg6
I2638
sg7
F0.3
ssS'12189'
p1986
(dp1987
g3
F2.187862
sg4
F0.420288
sg5
F0.630432
sg6
I2189
sg7
F0.3
ssS'12188'
p1988
(dp1989
g3
F2.646513
sg4
F0.468706
sg5
F0.7030580000000001
sg6
I2188
sg7
F0.3
ssS'12187'
p1990
(dp1991
g3
F4.536675
sg4
F0.731198
sg5
F1.096797
sg6
I2187
sg7
F0.3
ssS'12186'
p1992
(dp1993
g3
F3.2725560000000002
sg4
F0.53693
sg5
F0.8053959999999999
sg6
I2186
sg7
F0.3
ssS'12185'
p1994
(dp1995
g3
F2.128203
sg4
F0.42082
sg5
F0.63123
sg6
I2185
sg7
F0.3
ssS'12184'
p1996
(dp1997
g3
F3.737096
sg4
F0.934274
sg5
F1.5291290000000002
sg6
I2184
sg7
F0.3
ssS'12183'
p1998
(dp1999
g3
F2.8679550000000003
sg4
F0.622544
sg5
F0.9338160000000001
sg6
I2183
sg7
F0.3
ssS'12182'
p2000
(dp2001
g3
F4.150272
sg4
F1.037568
sg5
F3.112704
sg6
I2182
sg7
F0.2
ssS'12181'
p2002
(dp2003
g3
F3.56204
sg4
F0.89051
sg5
F1.416816
sg6
I2181
sg7
F0.3
ssS'12180'
p2004
(dp2005
g3
F3.6109160000000005
sg4
F0.9027290000000001
sg5
F2.7081869999999997
sg6
I2180
sg7
F0.2
ssS'12749'
p2006
(dp2007
g3
F2.0234989999999997
sg4
F0.428219
sg5
F0.642328
sg6
I2749
sg7
F0.3
ssS'12748'
p2008
(dp2009
g3
F2.106516
sg4
F0.44736
sg5
F0.67104
sg6
I2748
sg7
F0.3
ssS'12745'
p2010
(dp2011
g3
F2.098142
sg4
F0.448662
sg5
F0.6729930000000001
sg6
I2745
sg7
F0.3
ssS'12744'
p2012
(dp2013
g3
F1.896094
sg4
F0.41178899999999996
sg5
F0.617684
sg6
I2744
sg7
F0.3
ssS'12747'
p2014
(dp2015
g3
F2.071933
sg4
F0.455835
sg5
F0.6837529999999999
sg6
I2747
sg7
F0.3
ssS'12746'
p2016
(dp2017
g3
F2.0006909999999998
sg4
F0.438072
sg5
F0.657107
sg6
I2746
sg7
F0.3
ssS'12741'
p2018
(dp2019
g3
F2.720769
sg4
F0.5593480000000001
sg5
F0.8390219999999999
sg6
I2741
sg7
F0.3
ssS'12740'
p2020
(dp2021
g3
F2.384088
sg4
F0.462269
sg5
F0.693403
sg6
I2740
sg7
F0.3
ssS'12743'
p2022
(dp2023
g3
F1.947004
sg4
F0.409727
sg5
F0.6145900000000001
sg6
I2743
sg7
F0.3
ssS'12742'
p2024
(dp2025
g3
F2.379597
sg4
F0.503797
sg5
F0.755695
sg6
I2742
sg7
F0.3
ssS'12299'
p2026
(dp2027
g3
F1.5
sg4
F0.39
sg5
F0.6
sg6
I2299
sg7
F0.4
ssS'12298'
p2028
(dp2029
g3
F2.055
sg4
F0.525
sg5
F0.7875
sg6
I2298
sg7
F0.4
ssS'12293'
p2030
(dp2031
g3
F2.1737450000000003
sg4
F0.42473999999999995
sg5
F0.63711
sg6
I2293
sg7
F0.3
ssS'12292'
p2032
(dp2033
g3
F2.243307
sg4
F0.427282
sg5
F0.6409220000000001
sg6
I2292
sg7
F0.3
ssS'12291'
p2034
(dp2035
g3
F2.232705
sg4
F0.420018
sg5
F0.630026
sg6
I2291
sg7
F0.3
ssS'12290'
p2036
(dp2037
g3
F2.1103110000000003
sg4
F0.41174
sg5
F0.617611
sg6
I2290
sg7
F0.3
ssS'12297'
p2038
(dp2039
g3
F1.924403
sg4
F0.366321
sg5
F0.549481
sg6
I2297
sg7
F0.3
ssS'12296'
p2040
(dp2041
g3
F1.9911349999999999
sg4
F0.377682
sg5
F0.566522
sg6
I2296
sg7
F0.3
ssS'12295'
p2042
(dp2043
g3
F2.083628
sg4
F0.39580800000000005
sg5
F0.5937129999999999
sg6
I2295
sg7
F0.3
ssS'12294'
p2044
(dp2045
g3
F2.1725890000000003
sg4
F0.41290999999999994
sg5
F0.619365
sg6
I2294
sg7
F0.3
ssS'12367'
p2046
(dp2047
g3
F2.550962
sg4
F0.63774
sg5
F1.913221
sg6
I2367
sg7
F0.2
ssS'12366'
p2048
(dp2049
g3
F2.535063
sg4
F0.633766
sg5
F1.9012970000000002
sg6
I2366
sg7
F0.2
ssS'12365'
p2050
(dp2051
g3
F2.404795
sg4
F0.631539
sg5
F1.8137100000000002
sg6
I2365
sg7
F0.2
ssS'12364'
p2052
(dp2053
g3
F2.478898
sg4
F0.62474
sg5
F1.8608449999999999
sg6
I2364
sg7
F0.2
ssS'12363'
p2054
(dp2055
g3
F2.447467
sg4
F0.611867
sg5
F1.835601
sg6
I2363
sg7
F0.2
ssS'12362'
p2056
(dp2057
g3
F2.443552
sg4
F0.610888
sg5
F1.832664
sg6
I2362
sg7
F0.2
ssS'12361'
p2058
(dp2059
g3
F2.733821
sg4
F0.723319
sg5
F2.063653
sg6
I2361
sg7
F0.2
ssS'12360'
p2060
(dp2061
g3
F2.609346
sg4
F0.6903570000000001
sg5
F1.969683
sg6
I2360
sg7
F0.2
ssS'12399'
p2062
(dp2063
g3
F3.995353
sg4
F0.927546
sg5
F1.4982570000000002
sg6
I2399
sg7
F0.2
ssS'12369'
p2064
(dp2065
g3
F2.475097
sg4
F0.618774
sg5
F1.856322
sg6
I2369
sg7
F0.2
ssS'12368'
p2066
(dp2067
g3
F2.4466710000000003
sg4
F0.611668
sg5
F1.8350030000000002
sg6
I2368
sg7
F0.2
ssS'12165'
p2068
(dp2069
g3
F2.553611
sg4
F0.665626
sg5
F1.924283
sg6
I2165
sg7
F0.3
ssS'12164'
p2070
(dp2071
g3
F2.667847
sg4
F0.680663
sg5
F2.005453
sg6
I2164
sg7
F0.2
ssS'12167'
p2072
(dp2073
g3
F3.2036919999999998
sg4
F0.8009229999999999
sg5
F2.402769
sg6
I2167
sg7
F0.2
ssS'12166'
p2074
(dp2075
g3
F2.823156
sg4
F0.705789
sg5
F2.117367
sg6
I2166
sg7
F0.2
ssS'12161'
p2076
(dp2077
g3
F2.194737
sg4
F0.5486840000000001
sg5
F1.646053
sg6
I2161
sg7
F0.2
ssS'12160'
p2078
(dp2079
g3
F2.595572
sg4
F0.648893
sg5
F1.946679
sg6
I2160
sg7
F0.2
ssS'12163'
p2080
(dp2081
g3
F2.3448480000000003
sg4
F0.5862120000000001
sg5
F1.7586359999999999
sg6
I2163
sg7
F0.2
ssS'12162'
p2082
(dp2083
g3
F3.353535
sg4
F0.8383839999999999
sg5
F2.515151
sg6
I2162
sg7
F0.2
ssS'12169'
p2084
(dp2085
g3
F3.322521
sg4
F0.83063
sg5
F2.491891
sg6
I2169
sg7
F0.2
ssS'12168'
p2086
(dp2087
g3
F3.117912
sg4
F0.779478
sg5
F2.338434
sg6
I2168
sg7
F0.2
ssS'12393'
p2088
(dp2089
g3
F3.071216
sg4
F0.767804
sg5
F1.151706
sg6
I2393
sg7
F0.2
ssS'11988'
p2090
(dp2091
g3
F1.5335779999999999
sg4
F0.325116
sg5
F0.487674
sg6
I1988
sg7
F0.3
ssS'11989'
p2092
(dp2093
g3
F1.356165
sg4
F0.286024
sg5
F0.429036
sg6
I1989
sg7
F0.3
ssS'11982'
p2094
(dp2095
g3
F1.881431
sg4
F0.46525700000000003
sg5
F1.178212
sg6
I1982
sg7
F0.3
ssS'11983'
p2096
(dp2097
g3
F1.944828
sg4
F0.440787
sg5
F1.4434809999999998
sg6
I1983
sg7
F0.2
ssS'11980'
p2098
(dp2099
g3
F2.167402
sg4
F0.484061
sg5
F0.726092
sg6
I1980
sg7
F0.3
ssS'11981'
p2100
(dp2101
g3
F2.106783
sg4
F0.514648
sg5
F1.478817
sg6
I1981
sg7
F0.3
ssS'11986'
p2102
(dp2103
g3
F1.4716200000000002
sg4
F0.336121
sg5
F0.504182
sg6
I1986
sg7
F0.3
ssS'11987'
p2104
(dp2105
g3
F1.484003
sg4
F0.34405500000000006
sg5
F0.5160819999999999
sg6
I1987
sg7
F0.3
ssS'11984'
p2106
(dp2107
g3
F2.312033
sg4
F0.5780080000000001
sg5
F1.644564
sg6
I1984
sg7
F0.3
ssS'11985'
p2108
(dp2109
g3
F2.2544
sg4
F0.5636
sg5
F0.8873059999999999
sg6
I1985
sg7
F0.3
ssS'11858'
p2110
(dp2111
g3
F2.335476
sg4
F0.583869
sg5
F1.751607
sg6
I1858
sg7
F0.2
ssS'11859'
p2112
(dp2113
g3
F2.403273
sg4
F0.600818
sg5
F0.9123560000000001
sg6
I1859
sg7
F0.3
ssS'11850'
p2114
(dp2115
g3
F2.405366
sg4
F0.527049
sg5
F0.790573
sg6
I1850
sg7
F0.3
ssS'11851'
p2116
(dp2117
g3
F2.392075
sg4
F0.539298
sg5
F0.808947
sg6
I1851
sg7
F0.3
ssS'11852'
p2118
(dp2119
g3
F2.407191
sg4
F0.531457
sg5
F0.797185
sg6
I1852
sg7
F0.3
ssS'11853'
p2120
(dp2121
g3
F2.393673
sg4
F0.570982
sg5
F0.8564740000000001
sg6
I1853
sg7
F0.3
ssS'11854'
p2122
(dp2123
g3
F2.383111
sg4
F0.595778
sg5
F0.900304
sg6
I1854
sg7
F0.3
ssS'11855'
p2124
(dp2125
g3
F2.213715
sg4
F0.553429
sg5
F0.9401090000000001
sg6
I1855
sg7
F0.3
ssS'11856'
p2126
(dp2127
g3
F2.3471360000000003
sg4
F0.562658
sg5
F0.843987
sg6
I1856
sg7
F0.3
ssS'11857'
p2128
(dp2129
g3
F2.332258
sg4
F0.5830649999999999
sg5
F0.963639
sg6
I1857
sg7
F0.3
ssS'12155'
p2130
(dp2131
g3
F1.4487139999999998
sg4
F0.6124649999999999
sg5
F1.169964
sg6
I2155
sg7
F0.2
ssS'13016'
p2132
(dp2133
g3
F3.696166
sg4
F1.34683
sg5
F2.9130540000000003
sg6
I3016
sg7
F0.2
ssS'13017'
p2134
(dp2135
g3
F3.8544110000000003
sg4
F1.3298159999999999
sg5
F3.012879
sg6
I3017
sg7
F0.2
ssS'13014'
p2136
(dp2137
g3
F3.398329
sg4
F1.181756
sg5
F2.659471
sg6
I3014
sg7
F0.2
ssS'13015'
p2138
(dp2139
g3
F3.928706
sg4
F1.3454050000000002
sg5
F3.067606
sg6
I3015
sg7
F0.2
ssS'13012'
p2140
(dp2141
g3
F3.4941649999999997
sg4
F1.189562
sg5
F2.7259640000000003
sg6
I3012
sg7
F0.2
ssS'13013'
p2142
(dp2143
g3
F3.407693
sg4
F1.186469
sg5
F2.667285
sg6
I3013
sg7
F0.2
ssS'13010'
p2144
(dp2145
g3
F2.501884
sg4
F0.725956
sg5
F1.9099080000000002
sg6
I3010
sg7
F0.2
ssS'13011'
p2146
(dp2147
g3
F2.8308929999999997
sg4
F0.8218899999999999
sg5
F2.161226
sg6
I3011
sg7
F0.2
ssS'12153'
p2148
(dp2149
g3
F1.791532
sg4
F0.839435
sg5
F1.474167
sg6
I2153
sg7
F0.2
ssS'13018'
p2150
(dp2151
g3
F3.5467779999999998
sg4
F1.206052
sg5
F2.766536
sg6
I3018
sg7
F0.2
ssS'13019'
p2152
(dp2153
g3
F3.201728
sg4
F1.119607
sg5
F2.507688
sg6
I3019
sg7
F0.2
ssS'12987'
p2154
(dp2155
g3
F1.959091
sg4
F0.646341
sg5
F0.969511
sg6
I2987
sg7
F0.3
ssS'12986'
p2156
(dp2157
g3
F1.960203
sg4
F0.6467069999999999
sg5
F0.9700610000000001
sg6
I2986
sg7
F0.3
ssS'12985'
p2158
(dp2159
g3
F1.9901339999999998
sg4
F0.6565819999999999
sg5
F0.984873
sg6
I2985
sg7
F0.3
ssS'12984'
p2160
(dp2161
g3
F2.020402
sg4
F0.666568
sg5
F0.9998520000000001
sg6
I2984
sg7
F0.3
ssS'12983'
p2162
(dp2163
g3
F2.021585
sg4
F0.666958
sg5
F1.000438
sg6
I2983
sg7
F0.3
ssS'12982'
p2164
(dp2165
g3
F2.084416
sg4
F0.687688
sg5
F1.031532
sg6
I2982
sg7
F0.3
ssS'12981'
p2166
(dp2167
g3
F2.117644
sg4
F0.69865
sg5
F1.047975
sg6
I2981
sg7
F0.3
ssS'12980'
p2168
(dp2169
g3
F2.055879
sg4
F0.6782729999999999
sg5
F1.017409
sg6
I2980
sg7
F0.3
ssS'12989'
p2170
(dp2171
g3
F1.9844169999999999
sg4
F0.654696
sg5
F0.982044
sg6
I2989
sg7
F0.3
ssS'12988'
p2172
(dp2173
g3
F1.95798
sg4
F0.6459739999999999
sg5
F0.9689610000000001
sg6
I2988
sg7
F0.3
ssS'11956'
p2174
(dp2175
g3
F1.703417
sg4
F0.35964100000000004
sg5
F0.539462
sg6
I1956
sg7
F0.3
ssS'12569'
p2176
(dp2177
g3
F1.874885
sg4
F0.41893
sg5
F0.628396
sg6
I2569
sg7
F0.3
ssS'12568'
p2178
(dp2179
g3
F1.885444
sg4
F0.41834499999999997
sg5
F0.627517
sg6
I2568
sg7
F0.3
ssS'12561'
p2180
(dp2181
g3
F1.856572
sg4
F0.419439
sg5
F0.629158
sg6
I2561
sg7
F0.3
ssS'12560'
p2182
(dp2183
g3
F1.89603
sg4
F0.417309
sg5
F0.6259640000000001
sg6
I2560
sg7
F0.3
ssS'12563'
p2184
(dp2185
g3
F1.9311099999999999
sg4
F0.426432
sg5
F0.639648
sg6
I2563
sg7
F0.3
ssS'12562'
p2186
(dp2187
g3
F1.8708230000000001
sg4
F0.418606
sg5
F0.627909
sg6
I2562
sg7
F0.3
ssS'12565'
p2188
(dp2189
g3
F1.8642699999999999
sg4
F0.41956899999999997
sg5
F0.629354
sg6
I2565
sg7
F0.3
ssS'12564'
p2190
(dp2191
g3
F1.9195590000000002
sg4
F0.427348
sg5
F0.641021
sg6
I2564
sg7
F0.3
ssS'12567'
p2192
(dp2193
g3
F1.869354
sg4
F0.419227
sg5
F0.628841
sg6
I2567
sg7
F0.3
ssS'12566'
p2194
(dp2195
g3
F1.879791
sg4
F0.41861800000000005
sg5
F0.627927
sg6
I2566
sg7
F0.3
ssS'12622'
p2196
(dp2197
g3
F1.8949340000000001
sg4
F0.49371699999999996
sg5
F0.7405750000000001
sg6
I2622
sg7
F0.3
ssS'12623'
p2198
(dp2199
g3
F1.892141
sg4
F0.493941
sg5
F0.740912
sg6
I2623
sg7
F0.3
ssS'12620'
p2200
(dp2201
g3
F1.8497210000000002
sg4
F0.490886
sg5
F0.736329
sg6
I2620
sg7
F0.3
ssS'12621'
p2202
(dp2203
g3
F1.840153
sg4
F0.486201
sg5
F0.729302
sg6
I2621
sg7
F0.3
ssS'12626'
p2204
(dp2205
g3
F1.578804
sg4
F0.392008
sg5
F0.588012
sg6
I2626
sg7
F0.3
ssS'12627'
p2206
(dp2207
g3
F1.519198
sg4
F0.39545499999999995
sg5
F0.593183
sg6
I2627
sg7
F0.3
ssS'12624'
p2208
(dp2209
g3
F1.8898599999999999
sg4
F0.49428300000000003
sg5
F0.741425
sg6
I2624
sg7
F0.3
ssS'12625'
p2210
(dp2211
g3
F1.6631
sg4
F0.413956
sg5
F0.620934
sg6
I2625
sg7
F0.3
ssS'12628'
p2212
(dp2213
g3
F1.972585
sg4
F0.450178
sg5
F0.675268
sg6
I2628
sg7
F0.3
ssS'12629'
p2214
(dp2215
g3
F1.731403
sg4
F0.44465299999999996
sg5
F0.6669799999999999
sg6
I2629
sg7
F0.3
ssS'12198'
p2216
(dp2217
g3
F4.456277
sg4
F0.9272320000000001
sg5
F1.390848
sg6
I2198
sg7
F0.3
ssS'12199'
p2218
(dp2219
g3
F1.891597
sg4
F0.510126
sg5
F0.765189
sg6
I2199
sg7
F0.3
ssS'12190'
p2220
(dp2221
g3
F2.491056
sg4
F0.5669109999999999
sg5
F0.850367
sg6
I2190
sg7
F0.3
ssS'12191'
p2222
(dp2223
g3
F2.881739
sg4
F0.668163
sg5
F1.002245
sg6
I2191
sg7
F0.3
ssS'12192'
p2224
(dp2225
g3
F3.0617970000000003
sg4
F0.632342
sg5
F0.9485129999999999
sg6
I2192
sg7
F0.3
ssS'12193'
p2226
(dp2227
g3
F3.0825599999999995
sg4
F0.549851
sg5
F0.824776
sg6
I2193
sg7
F0.3
ssS'12194'
p2228
(dp2229
g3
F3.122385
sg4
F0.7805960000000001
sg5
F2.341789
sg6
I2194
sg7
F0.2
ssS'12195'
p2230
(dp2231
g3
F3.077432
sg4
F0.769358
sg5
F2.308074
sg6
I2195
sg7
F0.2
ssS'12196'
p2232
(dp2233
g3
F2.693743
sg4
F0.6734359999999999
sg5
F2.020307
sg6
I2196
sg7
F0.2
ssS'12197'
p2234
(dp2235
g3
F1.9825139999999999
sg4
F0.6726390000000001
sg5
F1.5458889999999998
sg6
I2197
sg7
F0.2
ssS'11928'
p2236
(dp2237
g3
F1.365207
sg4
F0.294381
sg5
F0.441572
sg6
I1928
sg7
F0.3
ssS'12758'
p2238
(dp2239
g3
F2.0283770000000003
sg4
F0.427794
sg5
F0.64169
sg6
I2758
sg7
F0.3
ssS'12759'
p2240
(dp2241
g3
F2.032101
sg4
F0.42762999999999995
sg5
F0.6414449999999999
sg6
I2759
sg7
F0.3
ssS'12756'
p2242
(dp2243
g3
F2.0495590000000004
sg4
F0.427114
sg5
F0.64067
sg6
I2756
sg7
F0.3
ssS'12757'
p2244
(dp2245
g3
F2.0541169999999997
sg4
F0.427134
sg5
F0.640701
sg6
I2757
sg7
F0.3
ssS'12754'
p2246
(dp2247
g3
F1.808979
sg4
F0.382616
sg5
F0.573924
sg6
I2754
sg7
F0.3
ssS'12755'
p2248
(dp2249
g3
F1.812286
sg4
F0.382436
sg5
F0.573654
sg6
I2755
sg7
F0.3
ssS'12752'
p2250
(dp2251
g3
F2.033972
sg4
F0.427628
sg5
F0.641443
sg6
I2752
sg7
F0.3
ssS'12753'
p2252
(dp2253
g3
F2.0376
sg4
F0.42743299999999995
sg5
F0.64115
sg6
I2753
sg7
F0.3
ssS'12750'
p2254
(dp2255
g3
F2.025786
sg4
F0.4278
sg5
F0.6417010000000001
sg6
I2750
sg7
F0.3
ssS'12751'
p2256
(dp2257
g3
F2.03024
sg4
F0.42779000000000006
sg5
F0.641684
sg6
I2751
sg7
F0.3
ssS'12284'
p2258
(dp2259
g3
F1.9569839999999998
sg4
F0.529979
sg5
F0.7949689999999999
sg6
I2284
sg7
F0.3
ssS'12285'
p2260
(dp2261
g3
F1.94386
sg4
F0.469101
sg5
F0.703651
sg6
I2285
sg7
F0.3
ssS'12286'
p2262
(dp2263
g3
F1.965265
sg4
F0.42930599999999997
sg5
F0.643959
sg6
I2286
sg7
F0.3
ssS'12287'
p2264
(dp2265
g3
F2.095414
sg4
F0.434451
sg5
F0.651677
sg6
I2287
sg7
F0.3
ssS'12280'
p2266
(dp2267
g3
F2.062534
sg4
F0.465252
sg5
F0.697877
sg6
I2280
sg7
F0.3
ssS'12281'
p2268
(dp2269
g3
F1.887659
sg4
F0.47259
sg5
F0.7088840000000001
sg6
I2281
sg7
F0.3
ssS'12282'
p2270
(dp2271
g3
F2.042953
sg4
F0.5263519999999999
sg5
F0.789529
sg6
I2282
sg7
F0.3
ssS'12283'
p2272
(dp2273
g3
F2.023275
sg4
F0.527009
sg5
F0.790513
sg6
I2283
sg7
F0.3
ssS'12288'
p2274
(dp2275
g3
F2.037028
sg4
F0.43164499999999995
sg5
F0.647467
sg6
I2288
sg7
F0.3
ssS'12289'
p2276
(dp2277
g3
F2.087138
sg4
F0.425317
sg5
F0.637975
sg6
I2289
sg7
F0.3
ssS'11923'
p2278
(dp2279
g3
F2.029348
sg4
F0.40587
sg5
F1.4881890000000002
sg6
I1923
sg7
F0.2
ssS'12370'
p2280
(dp2281
g3
F2.517607
sg4
F0.629402
sg5
F1.8882050000000001
sg6
I2370
sg7
F0.2
ssS'12371'
p2282
(dp2283
g3
F2.522283
sg4
F0.630571
sg5
F1.891712
sg6
I2371
sg7
F0.2
ssS'12372'
p2284
(dp2285
g3
F2.543641
sg4
F0.63591
sg5
F1.907731
sg6
I2372
sg7
F0.2
ssS'12373'
p2286
(dp2287
g3
F2.4603219999999997
sg4
F0.615081
sg5
F1.845242
sg6
I2373
sg7
F0.2
ssS'12374'
p2288
(dp2289
g3
F2.57497
sg4
F0.6437430000000001
sg5
F1.9312280000000002
sg6
I2374
sg7
F0.2
ssS'12375'
p2290
(dp2291
g3
F2.650179
sg4
F0.6625449999999999
sg5
F1.987634
sg6
I2375
sg7
F0.2
ssS'12376'
p2292
(dp2293
g3
F2.635052
sg4
F0.658763
sg5
F1.976289
sg6
I2376
sg7
F0.2
ssS'12377'
p2294
(dp2295
g3
F2.460833
sg4
F0.615208
sg5
F1.845625
sg6
I2377
sg7
F0.2
ssS'12378'
p2296
(dp2297
g3
F2.486584
sg4
F0.621646
sg5
F1.864938
sg6
I2378
sg7
F0.2
ssS'12379'
p2298
(dp2299
g3
F2.339434
sg4
F0.584859
sg5
F1.7545760000000001
sg6
I2379
sg7
F0.2
ssS'12176'
p2300
(dp2301
g3
F1.491917
sg4
F0.306836
sg5
F0.460254
sg6
I2176
sg7
F0.3
ssS'12177'
p2302
(dp2303
g3
F0.553619
sg4
F0.138405
sg5
F0.41521399999999997
sg6
I2177
sg7
F0.2
ssS'12174'
p2304
(dp2305
g3
F1.6894829999999998
sg4
F0.439363
sg5
F0.659044
sg6
I2174
sg7
F0.3
ssS'12175'
p2306
(dp2307
g3
F1.523938
sg4
F0.380985
sg5
F1.142954
sg6
I2175
sg7
F0.2
ssS'12172'
p2308
(dp2309
g3
F3.28024
sg4
F0.82006
sg5
F2.46018
sg6
I2172
sg7
F0.2
ssS'12173'
p2310
(dp2311
g3
F1.57144
sg4
F0.413701
sg5
F0.6205510000000001
sg6
I2173
sg7
F0.3
ssS'12170'
p2312
(dp2313
g3
F3.267193
sg4
F0.816798
sg5
F2.450395
sg6
I2170
sg7
F0.2
ssS'12171'
p2314
(dp2315
g3
F4.007119
sg4
F1.018244
sg5
F3.010827
sg6
I2171
sg7
F0.2
ssS'12178'
p2316
(dp2317
g3
F0.553619
sg4
F0.138405
sg5
F0.41521399999999997
sg6
I2178
sg7
F0.2
ssS'12179'
p2318
(dp2319
g3
F3.9217910000000002
sg4
F0.732713
sg5
F1.0990689999999999
sg6
I2179
sg7
F0.3
ssS'13152'
p2320
(dp2321
g3
F1.477463
sg4
F0.517368
sg5
F1.1574309999999999
sg6
I3152
sg7
F0.2
ssS'13151'
p2322
(dp2323
g3
F2.168964
sg4
F0.754494
sg5
F1.7031669999999999
sg6
I3151
sg7
F0.2
ssS'13150'
p2324
(dp2325
g3
F1.9441599999999999
sg4
F0.545198
sg5
F1.5211359999999998
sg6
I3150
sg7
F0.2
ssS'11883'
p2326
(dp2327
g3
F2.327562
sg4
F0.58189
sg5
F0.884735
sg6
I1883
sg7
F0.3
ssS'11882'
p2328
(dp2329
g3
F2.374748
sg4
F0.593687
sg5
F0.899572
sg6
I1882
sg7
F0.3
ssS'11881'
p2330
(dp2331
g3
F2.130201
sg4
F0.5325500000000001
sg5
F0.882593
sg6
I1881
sg7
F0.3
ssS'11880'
p2332
(dp2333
g3
F2.279115
sg4
F0.5435909999999999
sg5
F0.8153870000000001
sg6
I1880
sg7
F0.3
ssS'11887'
p2334
(dp2335
g3
F2.294829
sg4
F0.559991
sg5
F0.839986
sg6
I1887
sg7
F0.3
ssS'11886'
p2336
(dp2337
g3
F2.259901
sg4
F0.564975
sg5
F0.8838389999999999
sg6
I1886
sg7
F0.3
ssS'11885'
p2338
(dp2339
g3
F2.338861
sg4
F0.584715
sg5
F0.9134439999999999
sg6
I1885
sg7
F0.3
ssS'11884'
p2340
(dp2341
g3
F2.332792
sg4
F0.568997
sg5
F0.8534950000000001
sg6
I1884
sg7
F0.3
ssS'11889'
p2342
(dp2343
g3
F2.334724
sg4
F0.548322
sg5
F0.8224819999999999
sg6
I1889
sg7
F0.3
ssS'11888'
p2344
(dp2345
g3
F2.312385
sg4
F0.5469189999999999
sg5
F0.820378
sg6
I1888
sg7
F0.3
ssS'13023'
p2346
(dp2347
g3
F3.292111
sg4
F1.08026
sg5
F2.554827
sg6
I3023
sg7
F0.2
ssS'13022'
p2348
(dp2349
g3
F4.341674
sg4
F1.389228
sg5
F3.357525
sg6
I3022
sg7
F0.2
ssS'13021'
p2350
(dp2351
g3
F4.2320969999999996
sg4
F1.3254320000000002
sg5
F3.263209
sg6
I3021
sg7
F0.2
ssS'13020'
p2352
(dp2353
g3
F3.331979
sg4
F1.178606
sg5
F2.614188
sg6
I3020
sg7
F0.2
ssS'13027'
p2354
(dp2355
g3
F2.235
sg4
F0.465
sg5
F0.7125
sg6
I3027
sg7
F0.4
ssS'13026'
p2356
(dp2357
g3
F2.235
sg4
F0.465
sg5
F0.7125
sg6
I3026
sg7
F0.4
ssS'13025'
p2358
(dp2359
g3
F1.5
sg4
F0.39
sg5
F0.6
sg6
I3025
sg7
F0.4
ssS'13024'
p2360
(dp2361
g3
F2.235
sg4
F0.465
sg5
F0.7125
sg6
I3024
sg7
F0.4
ssS'13029'
p2362
(dp2363
g3
F1.5
sg4
F0.39
sg5
F0.6
sg6
I3029
sg7
F0.4
ssS'13028'
p2364
(dp2365
g3
F2.19
sg4
F0.615
sg5
F0.8775
sg6
I3028
sg7
F0.4
ssS'12990'
p2366
(dp2367
g3
F1.983277
sg4
F0.65432
sg5
F0.9814799999999999
sg6
I2990
sg7
F0.3
ssS'12991'
p2368
(dp2369
g3
F1.9541030000000001
sg4
F0.644695
sg5
F0.967043
sg6
I2991
sg7
F0.3
ssS'12992'
p2370
(dp2371
g3
F1.98157
sg4
F0.6537569999999999
sg5
F0.980636
sg6
I2992
sg7
F0.3
ssS'12993'
p2372
(dp2373
g3
F2.047349
sg4
F0.675458
sg5
F1.013188
sg6
I2993
sg7
F0.3
ssS'12994'
p2374
(dp2375
g3
F2.236971
sg4
F0.507389
sg5
F0.761083
sg6
I2994
sg7
F0.3
ssS'12995'
p2376
(dp2377
g3
F1.7992080000000001
sg4
F0.408096
sg5
F0.612144
sg6
I2995
sg7
F0.3
ssS'12996'
p2378
(dp2379
g3
F2.217824
sg4
F0.43093899999999996
sg5
F0.646408
sg6
I2996
sg7
F0.3
ssS'12997'
p2380
(dp2381
g3
F2.250083
sg4
F0.7423439999999999
sg5
F1.113516
sg6
I2997
sg7
F0.3
ssS'12998'
p2382
(dp2383
g3
F2.282801
sg4
F0.753138
sg5
F1.129708
sg6
I2998
sg7
F0.3
ssS'12999'
p2384
(dp2385
g3
F2.266835
sg4
F0.41039099999999995
sg5
F0.615586
sg6
I2999
sg7
F0.3
ssS'13126'
p2386
(dp2387
g3
F3.148613
sg4
F0.787153
sg5
F2.3614599999999997
sg6
I3126
sg7
F0.2
ssS'13127'
p2388
(dp2389
g3
F3.03296
sg4
F0.75824
sg5
F2.2747200000000003
sg6
I3127
sg7
F0.2
ssS'13124'
p2390
(dp2391
g3
F3.353243
sg4
F0.838311
sg5
F2.514932
sg6
I3124
sg7
F0.2
ssS'13125'
p2392
(dp2393
g3
F3.238228
sg4
F0.809557
sg5
F2.428671
sg6
I3125
sg7
F0.2
ssS'13122'
p2394
(dp2395
g3
F3.028907
sg4
F0.757227
sg5
F2.27168
sg6
I3122
sg7
F0.2
ssS'13123'
p2396
(dp2397
g3
F3.018683
sg4
F0.754671
sg5
F2.2640119999999997
sg6
I3123
sg7
F0.2
ssS'13120'
p2398
(dp2399
g3
F2.882532
sg4
F0.720633
sg5
F2.161899
sg6
I3120
sg7
F0.2
ssS'13121'
p2400
(dp2401
g3
F3.051202
sg4
F0.7628010000000001
sg5
F2.288402
sg6
I3121
sg7
F0.2
ssS'12578'
p2402
(dp2403
g3
F2.072563
sg4
F0.450835
sg5
F0.676253
sg6
I2578
sg7
F0.3
ssS'12579'
p2404
(dp2405
g3
F1.887183
sg4
F0.415512
sg5
F0.6232679999999999
sg6
I2579
sg7
F0.3
ssS'12572'
p2406
(dp2407
g3
F1.896549
sg4
F0.417797
sg5
F0.626696
sg6
I2572
sg7
F0.3
ssS'12573'
p2408
(dp2409
g3
F1.913614
sg4
F0.417217
sg5
F0.625826
sg6
I2573
sg7
F0.3
ssS'12570'
p2410
(dp2411
g3
F1.864504
sg4
F0.41956200000000005
sg5
F0.629343
sg6
I2570
sg7
F0.3
ssS'12571'
p2412
(dp2413
g3
F1.8802670000000001
sg4
F0.418606
sg5
F0.627909
sg6
I2571
sg7
F0.3
ssS'12576'
p2414
(dp2415
g3
F2.041397
sg4
F0.445073
sg5
F0.6676090000000001
sg6
I2576
sg7
F0.3
ssS'12577'
p2416
(dp2417
g3
F2.029487
sg4
F0.43391599999999997
sg5
F0.6508740000000001
sg6
I2577
sg7
F0.3
ssS'12574'
p2418
(dp2419
g3
F1.9020599999999999
sg4
F0.417522
sg5
F0.626284
sg6
I2574
sg7
F0.3
ssS'12575'
p2420
(dp2421
g3
F1.9559010000000001
sg4
F0.42847499999999994
sg5
F0.642713
sg6
I2575
sg7
F0.3
ssS'12619'
p2422
(dp2423
g3
F1.920769
sg4
F0.5027389999999999
sg5
F0.754109
sg6
I2619
sg7
F0.3
ssS'12618'
p2424
(dp2425
g3
F1.898249
sg4
F0.505178
sg5
F0.7577670000000001
sg6
I2618
sg7
F0.3
ssS'12617'
p2426
(dp2427
g3
F1.900331
sg4
F0.505035
sg5
F0.757552
sg6
I2617
sg7
F0.3
ssS'12616'
p2428
(dp2429
g3
F1.8787209999999999
sg4
F0.507366
sg5
F0.761049
sg6
I2616
sg7
F0.3
ssS'12615'
p2430
(dp2431
g3
F1.670664
sg4
F0.45054299999999997
sg5
F0.675814
sg6
I2615
sg7
F0.3
ssS'12614'
p2432
(dp2433
g3
F1.6724809999999999
sg4
F0.450398
sg5
F0.6755970000000001
sg6
I2614
sg7
F0.3
ssS'12613'
p2434
(dp2435
g3
F1.674003
sg4
F0.450175
sg5
F0.6752630000000001
sg6
I2613
sg7
F0.3
ssS'12612'
p2436
(dp2437
g3
F1.675826
sg4
F0.450035
sg5
F0.675052
sg6
I2612
sg7
F0.3
ssS'12611'
p2438
(dp2439
g3
F1.677653
sg4
F0.449896
sg5
F0.6748430000000001
sg6
I2611
sg7
F0.3
ssS'12610'
p2440
(dp2441
g3
F1.700707
sg4
F0.447423
sg5
F0.671134
sg6
I2610
sg7
F0.3
ssS'11929'
p2442
(dp2443
g3
F1.4143610000000002
sg4
F0.294943
sg5
F0.442415
sg6
I1929
sg7
F0.3
ssS'12769'
p2444
(dp2445
g3
F2.0419169999999998
sg4
F0.427245
sg5
F0.640867
sg6
I2769
sg7
F0.3
ssS'12768'
p2446
(dp2447
g3
F2.038271
sg4
F0.42743400000000004
sg5
F0.641151
sg6
I2768
sg7
F0.3
ssS'12763'
p2448
(dp2449
g3
F2.019177
sg4
F0.428185
sg5
F0.642278
sg6
I2763
sg7
F0.3
ssS'12762'
p2450
(dp2451
g3
F2.0439920000000003
sg4
F0.427288
sg5
F0.640932
sg6
I2762
sg7
F0.3
ssS'12761'
p2452
(dp2453
g3
F2.040221
sg4
F0.427436
sg5
F0.6411530000000001
sg6
I2761
sg7
F0.3
ssS'12760'
p2454
(dp2455
g3
F2.036583
sg4
F0.427628
sg5
F0.6414409999999999
sg6
I2760
sg7
F0.3
ssS'12767'
p2456
(dp2457
g3
F2.034708
sg4
F0.427628
sg5
F0.641442
sg6
I2767
sg7
F0.3
ssS'12766'
p2458
(dp2459
g3
F2.030167
sg4
F0.427633
sg5
F0.641449
sg6
I2766
sg7
F0.3
ssS'12765'
p2460
(dp2461
g3
F2.02645
sg4
F0.427798
sg5
F0.641698
sg6
I2765
sg7
F0.3
ssS'12764'
p2462
(dp2463
g3
F2.0229310000000003
sg4
F0.428008
sg5
F0.6420130000000001
sg6
I2764
sg7
F0.3
ssS'12389'
p2464
(dp2465
g3
F3.054037
sg4
F0.610807
sg5
F1.567499
sg6
I2389
sg7
F0.2
ssS'12388'
p2466
(dp2467
g3
F2.503453
sg4
F0.6258630000000001
sg5
F1.8775899999999999
sg6
I2388
sg7
F0.2
ssS'12385'
p2468
(dp2469
g3
F2.552428
sg4
F0.638107
sg5
F1.914321
sg6
I2385
sg7
F0.2
ssS'12384'
p2470
(dp2471
g3
F2.488289
sg4
F0.657833
sg5
F1.8781370000000002
sg6
I2384
sg7
F0.2
ssS'12387'
p2472
(dp2473
g3
F2.405491
sg4
F0.601373
sg5
F1.8041179999999999
sg6
I2387
sg7
F0.2
ssS'12386'
p2474
(dp2475
g3
F2.575212
sg4
F0.672312
sg5
F1.940912
sg6
I2386
sg7
F0.2
ssS'12381'
p2476
(dp2477
g3
F2.8740710000000003
sg4
F0.718518
sg5
F2.155553
sg6
I2381
sg7
F0.2
ssS'12380'
p2478
(dp2479
g3
F2.491909
sg4
F0.622977
sg5
F1.868932
sg6
I2380
sg7
F0.2
ssS'12383'
p2480
(dp2481
g3
F2.4394970000000002
sg4
F0.659303
sg5
F1.8460990000000002
sg6
I2383
sg7
F0.2
ssS'12382'
p2482
(dp2483
g3
F2.5366470000000003
sg4
F0.634162
sg5
F1.902485
sg6
I2382
sg7
F0.2
ssS'12143'
p2484
(dp2485
g3
F2.156313
sg4
F0.5390780000000001
sg5
F1.617235
sg6
I2143
sg7
F0.2
ssS'12142'
p2486
(dp2487
g3
F3.2170900000000002
sg4
F0.804272
sg5
F2.412817
sg6
I2142
sg7
F0.2
ssS'12141'
p2488
(dp2489
g3
F1.59606
sg4
F0.43338299999999996
sg5
F1.208501
sg6
I2141
sg7
F0.2
ssS'12140'
p2490
(dp2491
g3
F2.162695
sg4
F0.606254
sg5
F1.6723169999999998
sg6
I2140
sg7
F0.2
ssS'12147'
p2492
(dp2493
g3
F1.2125839999999999
sg4
F0.508178
sg5
F0.9777819999999999
sg6
I2147
sg7
F0.2
ssS'12146'
p2494
(dp2495
g3
F1.15049
sg4
F0.46679699999999996
sg5
F0.9225920000000001
sg6
I2146
sg7
F0.2
ssS'12145'
p2496
(dp2497
g3
F1.342029
sg4
F0.526346
sg5
F1.0701340000000001
sg6
I2145
sg7
F0.2
ssS'12144'
p2498
(dp2499
g3
F1.763601
sg4
F0.4409
sg5
F1.3227000000000002
sg6
I2144
sg7
F0.2
ssS'12149'
p2500
(dp2501
g3
F1.140004
sg4
F0.49113999999999997
sg5
F0.923716
sg6
I2149
sg7
F0.2
ssS'12148'
p2502
(dp2503
g3
F1.264233
sg4
F0.535223
sg5
F1.02123
sg6
I2148
sg7
F0.2
ssS'13140'
p2504
(dp2505
g3
F4.923876
sg4
F1.4674930000000002
sg5
F3.771748
sg6
I3140
sg7
F0.2
ssS'13141'
p2506
(dp2507
g3
F4.917928
sg4
F1.558339
sg5
F3.7980650000000002
sg6
I3141
sg7
F0.2
ssS'13142'
p2508
(dp2509
g3
F2.472931
sg4
F0.618233
sg5
F1.854698
sg6
I3142
sg7
F0.2
ssS'13143'
p2510
(dp2511
g3
F2.451096
sg4
F0.612774
sg5
F1.838322
sg6
I3143
sg7
F0.2
ssS'13144'
p2512
(dp2513
g3
F3.319005
sg4
F0.829751
sg5
F2.489254
sg6
I3144
sg7
F0.2
ssS'13145'
p2514
(dp2515
g3
F4.963827
sg4
F1.2409569999999999
sg5
F3.72287
sg6
I3145
sg7
F0.2
ssS'13146'
p2516
(dp2517
g3
F1.5018520000000002
sg4
F0.532972
sg5
F1.178892
sg6
I3146
sg7
F0.2
ssS'13147'
p2518
(dp2519
g3
F1.6276339999999998
sg4
F0.484777
sg5
F1.246681
sg6
I3147
sg7
F0.2
ssS'13148'
p2520
(dp2521
g3
F1.6407429999999998
sg4
F0.48289000000000004
sg5
F1.2547920000000001
sg6
I3148
sg7
F0.2
ssS'13149'
p2522
(dp2523
g3
F1.687003
sg4
F0.489394
sg5
F1.2878
sg6
I3149
sg7
F0.2
ssS'11922'
p2524
(dp2525
g3
F1.0616970000000001
sg4
F0.252029
sg5
F0.791807
sg6
I1922
sg7
F0.2
ssS'11898'
p2526
(dp2527
g3
F2.5390989999999998
sg4
F0.45954900000000004
sg5
F0.689324
sg6
I1898
sg7
F0.3
ssS'11899'
p2528
(dp2529
g3
F2.451506
sg4
F0.43727499999999997
sg5
F0.655912
sg6
I1899
sg7
F0.3
ssS'11894'
p2530
(dp2531
g3
F2.491579
sg4
F0.460843
sg5
F0.691264
sg6
I1894
sg7
F0.3
ssS'11895'
p2532
(dp2533
g3
F2.518884
sg4
F0.481518
sg5
F0.722277
sg6
I1895
sg7
F0.3
ssS'11896'
p2534
(dp2535
g3
F2.577248
sg4
F0.479016
sg5
F0.718523
sg6
I1896
sg7
F0.3
ssS'11897'
p2536
(dp2537
g3
F2.559557
sg4
F0.46757800000000005
sg5
F0.701368
sg6
I1897
sg7
F0.3
ssS'11890'
p2538
(dp2539
g3
F2.202584
sg4
F0.550646
sg5
F0.8492770000000001
sg6
I1890
sg7
F0.3
ssS'11891'
p2540
(dp2541
g3
F2.265988
sg4
F0.458021
sg5
F0.687032
sg6
I1891
sg7
F0.3
ssS'11892'
p2542
(dp2543
g3
F2.073753
sg4
F0.455636
sg5
F0.683453
sg6
I1892
sg7
F0.3
ssS'11893'
p2544
(dp2545
g3
F2.531362
sg4
F0.480997
sg5
F0.721496
sg6
I1893
sg7
F0.3
ssS'13038'
p2546
(dp2547
g3
F3.0551600000000003
sg4
F0.665133
sg5
F0.9976999999999999
sg6
I3038
sg7
F0.3
ssS'13039'
p2548
(dp2549
g3
F2.959943
sg4
F0.665266
sg5
F0.997899
sg6
I3039
sg7
F0.3
ssS'13034'
p2550
(dp2551
g3
F4.092749
sg4
F0.741146
sg5
F1.111719
sg6
I3034
sg7
F0.3
ssS'13035'
p2552
(dp2553
g3
F4.193801000000001
sg4
F0.771024
sg5
F1.156536
sg6
I3035
sg7
F0.3
ssS'13036'
p2554
(dp2555
g3
F3.826264
sg4
F0.741378
sg5
F1.112068
sg6
I3036
sg7
F0.3
ssS'13037'
p2556
(dp2557
g3
F3.5967029999999998
sg4
F0.753769
sg5
F1.130654
sg6
I3037
sg7
F0.3
ssS'13030'
p2558
(dp2559
g3
F1.5
sg4
F0.39
sg5
F0.6
sg6
I3030
sg7
F0.4
ssS'13031'
p2560
(dp2561
g3
F2.19
sg4
F0.615
sg5
F0.8775
sg6
I3031
sg7
F0.4
ssS'13032'
p2562
(dp2563
g3
F2.19
sg4
F0.615
sg5
F0.8775
sg6
I3032
sg7
F0.4
ssS'13033'
p2564
(dp2565
g3
F2.235
sg4
F0.465
sg5
F0.7125
sg6
I3033
sg7
F0.4
ssS'12969'
p2566
(dp2567
g3
F2.011577
sg4
F0.663657
sg5
F0.9954850000000001
sg6
I2969
sg7
F0.3
ssS'12968'
p2568
(dp2569
g3
F2.042506
sg4
F0.673861
sg5
F1.010791
sg6
I2968
sg7
F0.3
ssS'12965'
p2570
(dp2571
g3
F1.9003450000000002
sg4
F0.626959
sg5
F0.9404389999999999
sg6
I2965
sg7
F0.3
ssS'12964'
p2572
(dp2573
g3
F2.10183
sg4
F0.380518
sg5
F0.570777
sg6
I2964
sg7
F0.3
ssS'12967'
p2574
(dp2575
g3
F2.072534
sg4
F0.683767
sg5
F1.025651
sg6
I2967
sg7
F0.3
ssS'12966'
p2576
(dp2577
g3
F1.873543
sg4
F0.618117
sg5
F0.927175
sg6
I2966
sg7
F0.3
ssS'12961'
p2578
(dp2579
g3
F2.212971
sg4
F0.40063899999999997
sg5
F0.600959
sg6
I2961
sg7
F0.3
ssS'12960'
p2580
(dp2581
g3
F2.2392
sg4
F0.405388
sg5
F0.608082
sg6
I2960
sg7
F0.3
ssS'12963'
p2582
(dp2583
g3
F2.160901
sg4
F0.391213
sg5
F0.586819
sg6
I2963
sg7
F0.3
ssS'12962'
p2584
(dp2585
g3
F2.186626
sg4
F0.39587000000000006
sg5
F0.593805
sg6
I2962
sg7
F0.3
ssS'12815'
p2586
(dp2587
g3
F2.013468
sg4
F0.42793
sg5
F0.641895
sg6
I2815
sg7
F0.3
ssS'12814'
p2588
(dp2589
g3
F1.9944069999999998
sg4
F0.428778
sg5
F0.6431669999999999
sg6
I2814
sg7
F0.3
ssS'12817'
p2590
(dp2591
g3
F2.023815
sg4
F0.427522
sg5
F0.641282
sg6
I2817
sg7
F0.3
ssS'12816'
p2592
(dp2593
g3
F2.004546
sg4
F0.428324
sg5
F0.642486
sg6
I2816
sg7
F0.3
ssS'12811'
p2594
(dp2595
g3
F1.9508109999999999
sg4
F0.433647
sg5
F0.65047
sg6
I2811
sg7
F0.3
ssS'12810'
p2596
(dp2597
g3
F1.8149529999999998
sg4
F0.407916
sg5
F0.611873
sg6
I2810
sg7
F0.3
ssS'12813'
p2598
(dp2599
g3
F1.923
sg4
F0.42106699999999997
sg5
F0.6315999999999999
sg6
I2813
sg7
F0.3
ssS'12812'
p2600
(dp2601
g3
F1.935327
sg4
F0.421502
sg5
F0.632253
sg6
I2812
sg7
F0.3
ssS'12819'
p2602
(dp2603
g3
F2.063818
sg4
F0.426362
sg5
F0.6395430000000001
sg6
I2819
sg7
F0.3
ssS'12818'
p2604
(dp2605
g3
F2.044109
sg4
F0.426972
sg5
F0.640458
sg6
I2818
sg7
F0.3
ssS'12549'
p2606
(dp2607
g3
F1.94144
sg4
F0.416725
sg5
F0.625087
sg6
I2549
sg7
F0.3
ssS'12548'
p2608
(dp2609
g3
F1.982584
sg4
F0.41512
sg5
F0.62268
sg6
I2548
sg7
F0.3
ssS'12608'
p2610
(dp2611
g3
F1.749524
sg4
F0.44289
sg5
F0.6643340000000001
sg6
I2608
sg7
F0.3
ssS'12609'
p2612
(dp2613
g3
F1.7027379999999999
sg4
F0.447301
sg5
F0.6709520000000001
sg6
I2609
sg7
F0.3
ssS'12600'
p2614
(dp2615
g3
F1.873322
sg4
F0.436399
sg5
F0.654599
sg6
I2600
sg7
F0.3
ssS'12601'
p2616
(dp2617
g3
F1.847491
sg4
F0.43831400000000004
sg5
F0.657471
sg6
I2601
sg7
F0.3
ssS'12602'
p2618
(dp2619
g3
F1.847103
sg4
F0.438334
sg5
F0.657501
sg6
I2602
sg7
F0.3
ssS'12603'
p2620
(dp2621
g3
F1.821987
sg4
F0.44022300000000003
sg5
F0.660335
sg6
I2603
sg7
F0.3
ssS'12604'
p2622
(dp2623
g3
F1.821609
sg4
F0.440241
sg5
F0.6603610000000001
sg6
I2604
sg7
F0.3
ssS'12605'
p2624
(dp2625
g3
F1.8198779999999999
sg4
F0.44002899999999995
sg5
F0.6600440000000001
sg6
I2605
sg7
F0.3
ssS'12606'
p2626
(dp2627
g3
F1.895115
sg4
F0.46084800000000004
sg5
F0.691272
sg6
I2606
sg7
F0.3
ssS'12607'
p2628
(dp2629
g3
F2.040285
sg4
F0.512431
sg5
F0.768647
sg6
I2607
sg7
F0.3
ssS'12774'
p2630
(dp2631
g3
F2.0037000000000003
sg4
F0.428626
sg5
F0.642938
sg6
I2774
sg7
F0.3
ssS'12775'
p2632
(dp2633
g3
F1.926345
sg4
F0.421014
sg5
F0.631521
sg6
I2775
sg7
F0.3
ssS'12776'
p2634
(dp2635
g3
F1.9993100000000001
sg4
F0.432005
sg5
F0.6480079999999999
sg6
I2776
sg7
F0.3
ssS'12777'
p2636
(dp2637
g3
F2.001317
sg4
F0.430421
sg5
F0.645632
sg6
I2777
sg7
F0.3
ssS'12770'
p2638
(dp2639
g3
F2.0466290000000003
sg4
F0.42729500000000004
sg5
F0.640942
sg6
I2770
sg7
F0.3
ssS'12771'
p2640
(dp2641
g3
F2.021015
sg4
F0.428017
sg5
F0.642025
sg6
I2771
sg7
F0.3
ssS'12772'
p2642
(dp2643
g3
F2.0245930000000003
sg4
F0.427804
sg5
F0.6417059999999999
sg6
I2772
sg7
F0.3
ssS'12773'
p2644
(dp2645
g3
F2.000267
sg4
F0.428867
sg5
F0.6433
sg6
I2773
sg7
F0.3
ssS'12778'
p2646
(dp2647
g3
F2.004747
sg4
F0.430258
sg5
F0.645387
sg6
I2778
sg7
F0.3
ssS'12779'
p2648
(dp2649
g3
F2.020346
sg4
F0.446653
sg5
F0.669979
sg6
I2779
sg7
F0.3
ssS'11779'
p2650
(dp2651
g3
F2.316364
sg4
F0.579091
sg5
F1.737273
sg6
I1779
sg7
F0.2
ssS'11778'
p2652
(dp2653
g3
F2.507998
sg4
F0.627
sg5
F1.8809989999999999
sg6
I1778
sg7
F0.2
ssS'11771'
p2654
(dp2655
g3
F2.7139550000000003
sg4
F0.678489
sg5
F2.0354669999999997
sg6
I1771
sg7
F0.2
ssS'11770'
p2656
(dp2657
g3
F2.7466969999999997
sg4
F0.686674
sg5
F2.0600229999999997
sg6
I1770
sg7
F0.2
ssS'11773'
p2658
(dp2659
g3
F2.497795
sg4
F0.6244489999999999
sg5
F1.873346
sg6
I1773
sg7
F0.2
ssS'11772'
p2660
(dp2661
g3
F2.601629
sg4
F0.650407
sg5
F1.951222
sg6
I1772
sg7
F0.2
ssS'11775'
p2662
(dp2663
g3
F2.358627
sg4
F0.589657
sg5
F1.7689709999999998
sg6
I1775
sg7
F0.2
ssS'11774'
p2664
(dp2665
g3
F2.369074
sg4
F0.592268
sg5
F1.776805
sg6
I1774
sg7
F0.2
ssS'11777'
p2666
(dp2667
g3
F2.4837469999999997
sg4
F0.620937
sg5
F1.862811
sg6
I1777
sg7
F0.2
ssS'11776'
p2668
(dp2669
g3
F2.31719
sg4
F0.579298
sg5
F1.737893
sg6
I1776
sg7
F0.2
ssS'12305'
p2670
(dp2671
g3
F2.65592
sg4
F0.66398
sg5
F1.9919399999999998
sg6
I2305
sg7
F0.2
ssS'12398'
p2672
(dp2673
g3
F3.6665050000000003
sg4
F0.914438
sg5
F1.374939
sg6
I2398
sg7
F0.2
ssS'12304'
p2674
(dp2675
g3
F2.989123
sg4
F0.747281
sg5
F2.241842
sg6
I2304
sg7
F0.2
ssS'12396'
p2676
(dp2677
g3
F2.7587740000000003
sg4
F0.689693
sg5
F1.03454
sg6
I2396
sg7
F0.2
ssS'12397'
p2678
(dp2679
g3
F3.44139
sg4
F0.860348
sg5
F1.290521
sg6
I2397
sg7
F0.2
ssS'12394'
p2680
(dp2681
g3
F3.071216
sg4
F0.763474
sg5
F1.151706
sg6
I2394
sg7
F0.2
ssS'12395'
p2682
(dp2683
g3
F2.8340820000000004
sg4
F0.70852
sg5
F1.062781
sg6
I2395
sg7
F0.2
ssS'12392'
p2684
(dp2685
g3
F2.952291
sg4
F0.738073
sg5
F1.107109
sg6
I2392
sg7
F0.2
ssS'12307'
p2686
(dp2687
g3
F2.3563229999999997
sg4
F0.589081
sg5
F1.767243
sg6
I2307
sg7
F0.2
ssS'12390'
p2688
(dp2689
g3
F3.759896
sg4
F0.783738
sg5
F1.409961
sg6
I2390
sg7
F0.2
ssS'12391'
p2690
(dp2691
g3
F3.514511
sg4
F0.8040949999999999
sg5
F1.317942
sg6
I2391
sg7
F0.2
ssS'12306'
p2692
(dp2693
g3
F2.4843010000000003
sg4
F0.621075
sg5
F1.863226
sg6
I2306
sg7
F0.2
ssS'12158'
p2694
(dp2695
g3
F1.438987
sg4
F0.6098250000000001
sg5
F1.162599
sg6
I2158
sg7
F0.2
ssS'12159'
p2696
(dp2697
g3
F1.4592939999999999
sg4
F0.616337
sg5
F1.178308
sg6
I2159
sg7
F0.2
ssS'12154'
p2698
(dp2699
g3
F1.569341
sg4
F0.730952
sg5
F1.2898779999999999
sg6
I2154
sg7
F0.2
ssS'12301'
p2700
(dp2701
g3
F2.43
sg4
F0.405
sg5
F0.75
sg6
I2301
sg7
F0.4
ssS'12156'
p2702
(dp2703
g3
F1.433219
sg4
F0.607185
sg5
F1.157874
sg6
I2156
sg7
F0.2
ssS'12157'
p2704
(dp2705
g3
F1.4331120000000002
sg4
F0.606768
sg5
F1.157664
sg6
I2157
sg7
F0.2
ssS'12150'
p2706
(dp2707
g3
F1.235417
sg4
F0.530346
sg5
F1.0003929999999999
sg6
I2150
sg7
F0.2
ssS'12151'
p2708
(dp2709
g3
F1.543186
sg4
F0.721027
sg5
F1.269133
sg6
I2151
sg7
F0.2
ssS'12152'
p2710
(dp2711
g3
F1.675821
sg4
F0.792821
sg5
F1.381488
sg6
I2152
sg7
F0.2
ssS'12300'
p2712
(dp2713
g3
F2.325
sg4
F0.675
sg5
F1.0125
sg6
I2300
sg7
F0.4
ssS'11959'
p2714
(dp2715
g3
F1.613964
sg4
F0.340009
sg5
F0.510014
sg6
I1959
sg7
F0.3
ssS'12303'
p2716
(dp2717
g3
F1.875
sg4
F0.525
sg5
F0.7425
sg6
I2303
sg7
F0.4
ssS'11955'
p2718
(dp2719
g3
F1.62094
sg4
F0.37201999999999996
sg5
F0.55803
sg6
I1955
sg7
F0.3
ssS'11954'
p2720
(dp2721
g3
F1.600662
sg4
F0.393891
sg5
F0.5908359999999999
sg6
I1954
sg7
F0.3
ssS'11957'
p2722
(dp2723
g3
F1.576629
sg4
F0.323119
sg5
F0.48467799999999994
sg6
I1957
sg7
F0.3
ssS'12302'
p2724
(dp2725
g3
F3.255
sg4
F0.66
sg5
F1.02
sg6
I2302
sg7
F0.4
ssS'11951'
p2726
(dp2727
g3
F1.4673660000000002
sg4
F0.338258
sg5
F0.507387
sg6
I1951
sg7
F0.3
ssS'11950'
p2728
(dp2729
g3
F1.5229750000000002
sg4
F0.321813
sg5
F0.48272
sg6
I1950
sg7
F0.3
ssS'11953'
p2730
(dp2731
g3
F1.585001
sg4
F0.398089
sg5
F0.597134
sg6
I1953
sg7
F0.3
ssS'11952'
p2732
(dp2733
g3
F1.6085990000000001
sg4
F0.397474
sg5
F0.59621
sg6
I1952
sg7
F0.3
ssS'12550'
p2734
(dp2735
g3
F1.9287459999999998
sg4
F0.417309
sg5
F0.625963
sg6
I2550
sg7
F0.3
ssS'12551'
p2736
(dp2737
g3
F1.914914
sg4
F0.417706
sg5
F0.626559
sg6
I2551
sg7
F0.3
ssS'12552'
p2738
(dp2739
g3
F2.055093
sg4
F0.450871
sg5
F0.676307
sg6
I2552
sg7
F0.3
ssS'12033'
p2740
(dp2741
g3
F2.377199
sg4
F0.5461849999999999
sg5
F0.8192780000000001
sg6
I2033
sg7
F0.3
ssS'12553'
p2742
(dp2743
g3
F2.033878
sg4
F0.45149500000000004
sg5
F0.677243
sg6
I2553
sg7
F0.3
ssS'11749'
p2744
(dp2745
g3
F2.8522469999999998
sg4
F0.7130620000000001
sg5
F1.987276
sg6
I1749
sg7
F0.3
ssS'12554'
p2746
(dp2747
g3
F1.892106
sg4
F0.417386
sg5
F0.626078
sg6
I2554
sg7
F0.3
ssS'12555'
p2748
(dp2749
g3
F1.879798
sg4
F0.41815199999999997
sg5
F0.627228
sg6
I2555
sg7
F0.3
ssS'12556'
p2750
(dp2751
g3
F1.893432
sg4
F0.41735900000000004
sg5
F0.626039
sg6
I2556
sg7
F0.3
ssS'12557'
p2752
(dp2753
g3
F1.880382
sg4
F0.417958
sg5
F0.626937
sg6
I2557
sg7
F0.3
ssS'12544'
p2754
(dp2755
g3
F1.8760310000000002
sg4
F0.381519
sg5
F0.5722780000000001
sg6
I2544
sg7
F0.3
ssS'13049'
p2756
(dp2757
g3
F2.8726010000000004
sg4
F0.879114
sg5
F1.318671
sg6
I3049
sg7
F0.3
ssS'13048'
p2758
(dp2759
g3
F2.71644
sg4
F0.805926
sg5
F1.20889
sg6
I3048
sg7
F0.3
ssS'13041'
p2760
(dp2761
g3
F2.946282
sg4
F0.651141
sg5
F0.976712
sg6
I3041
sg7
F0.3
ssS'13040'
p2762
(dp2763
g3
F3.057016
sg4
F0.6549389999999999
sg5
F0.982409
sg6
I3040
sg7
F0.3
ssS'13043'
p2764
(dp2765
g3
F2.7629610000000002
sg4
F0.651492
sg5
F0.9772379999999999
sg6
I3043
sg7
F0.3
ssS'13042'
p2766
(dp2767
g3
F2.851673
sg4
F0.650854
sg5
F0.9762810000000001
sg6
I3042
sg7
F0.3
ssS'13045'
p2768
(dp2769
g3
F2.9887509999999997
sg4
F0.756582
sg5
F1.134872
sg6
I3045
sg7
F0.3
ssS'13044'
p2770
(dp2771
g3
F2.679613
sg4
F0.652985
sg5
F0.979478
sg6
I3044
sg7
F0.3
ssS'13047'
p2772
(dp2773
g3
F2.7857380000000003
sg4
F0.816484
sg5
F1.2247270000000001
sg6
I3047
sg7
F0.3
ssS'13046'
p2774
(dp2775
g3
F2.866122
sg4
F0.78054
sg5
F1.1708100000000001
sg6
I3046
sg7
F0.3
ssS'12543'
p2776
(dp2777
g3
F1.86122
sg4
F0.381637
sg5
F0.572455
sg6
I2543
sg7
F0.3
ssS'12978'
p2778
(dp2779
g3
F2.0589429999999997
sg4
F0.679284
sg5
F1.018926
sg6
I2978
sg7
F0.3
ssS'12979'
p2780
(dp2781
g3
F2.0577170000000002
sg4
F0.678879
sg5
F1.018319
sg6
I2979
sg7
F0.3
ssS'12976'
p2782
(dp2783
g3
F1.973644
sg4
F0.651142
sg5
F0.976713
sg6
I2976
sg7
F0.3
ssS'12977'
p2784
(dp2785
g3
F2.060171
sg4
F0.6796890000000001
sg5
F1.019533
sg6
I2977
sg7
F0.3
ssS'12974'
p2786
(dp2787
g3
F2.0340860000000003
sg4
F0.671083
sg5
F1.006624
sg6
I2974
sg7
F0.3
ssS'12975'
p2788
(dp2789
g3
F2.003409
sg4
F0.6609619999999999
sg5
F0.991443
sg6
I2975
sg7
F0.3
ssS'12972'
p2790
(dp2791
g3
F2.007485
sg4
F0.662307
sg5
F0.99346
sg6
I2972
sg7
F0.3
ssS'12973'
p2792
(dp2793
g3
F2.066334
sg4
F0.681722
sg5
F1.022583
sg6
I2973
sg7
F0.3
ssS'12970'
p2794
(dp2795
g3
F2.040093
sg4
F0.673065
sg5
F1.009597
sg6
I2970
sg7
F0.3
ssS'12971'
p2796
(dp2797
g3
F2.0086519999999997
sg4
F0.662692
sg5
F0.9940380000000001
sg6
I2971
sg7
F0.3
ssS'11930'
p2798
(dp2799
g3
F1.472441
sg4
F0.307774
sg5
F0.461661
sg6
I1930
sg7
F0.3
ssS'12806'
p2800
(dp2801
g3
F1.748014
sg4
F0.45067
sg5
F0.676005
sg6
I2806
sg7
F0.3
ssS'12807'
p2802
(dp2803
g3
F1.717198
sg4
F0.41440600000000005
sg5
F0.621609
sg6
I2807
sg7
F0.3
ssS'12804'
p2804
(dp2805
g3
F1.6736179999999998
sg4
F0.45847499999999997
sg5
F0.687713
sg6
I2804
sg7
F0.3
ssS'12805'
p2806
(dp2807
g3
F1.6878819999999999
sg4
F0.45676900000000004
sg5
F0.685154
sg6
I2805
sg7
F0.3
ssS'12802'
p2808
(dp2809
g3
F1.673057
sg4
F0.458386
sg5
F0.687579
sg6
I2802
sg7
F0.3
ssS'12803'
p2810
(dp2811
g3
F1.659249
sg4
F0.460244
sg5
F0.690366
sg6
I2803
sg7
F0.3
ssS'12800'
p2812
(dp2813
g3
F1.688858
sg4
F0.42676200000000003
sg5
F0.640143
sg6
I2800
sg7
F0.3
ssS'12801'
p2814
(dp2815
g3
F1.7392250000000002
sg4
F0.442249
sg5
F0.663373
sg6
I2801
sg7
F0.3
ssS'12558'
p2816
(dp2817
g3
F1.8682320000000001
sg4
F0.418786
sg5
F0.628179
sg6
I2558
sg7
F0.3
ssS'12559'
p2818
(dp2819
g3
F1.881633
sg4
F0.417928
sg5
F0.626892
sg6
I2559
sg7
F0.3
ssS'12808'
p2820
(dp2821
g3
F1.757006
sg4
F0.41147599999999995
sg5
F0.617214
sg6
I2808
sg7
F0.3
ssS'12809'
p2822
(dp2823
g3
F1.7735130000000001
sg4
F0.410403
sg5
F0.615604
sg6
I2809
sg7
F0.3
ss.